; generated by ARM C/C++ Compiler, 5.03 [Build 76]
; commandline ArmCC [--list --debug -c --asm --interleave -o.\obj\glcd_lpc18xx.o --asm_dir=.\Lst\ --list_dir=.\Lst\ --depend=.\obj\glcd_lpc18xx.d --cpu=Cortex-M3 --apcs=interwork -O3 -I.\app -I.\USBStack\INC -IC:\Keil\ARM\RV31\INC -IC:\Keil\ARM\CMSIS\Include -IC:\Keil\ARM\Inc\NXP\LPC18xx -D__MICROLIB --omf_browse=.\obj\glcd_lpc18xx.crf GLCD_LPC18xx.c]
                          THUMB

                          AREA ||.text||, CODE, READONLY, ALIGN=2

                  wr_reg PROC
;;;162    
;;;163    static __inline void wr_reg (unsigned char reg, unsigned short val) {
000000  b570              PUSH     {r4-r6,lr}
000002  460c              MOV      r4,r1
;;;164      wr_cmd(reg);
000004  f7fffffe          BL       wr_cmd
000008  4eff              LDR      r6,|L1.1032|
00000a  f44f3580          MOV      r5,#0x10000
00000e  6035              STR      r5,[r6,#0]
000010  2072              MOVS     r0,#0x72
000012  f7fffffe          BL       spi_tran
000016  0a20              LSRS     r0,r4,#8
000018  f7fffffe          BL       spi_tran
00001c  b2e0              UXTB     r0,r4
00001e  f7fffffe          BL       spi_tran
000022  f8465c80          STR      r5,[r6,#-0x80]
;;;165      wr_dat(val);
;;;166    }
000026  bd70              POP      {r4-r6,pc}
;;;167    
                          ENDP

                  GLCD_Init PROC
;;;176    
;;;177    void GLCD_Init (void) {
000028  48f9              LDR      r0,|L1.1040|
00002a  b510              PUSH     {r4,lr}
;;;178      uint32_t i;
;;;179    
;;;180      /* Connect base clock */
;;;181      LPC_CGU->BASE_SSP0_CLK = (1    << 11) |
00002c  49f7              LDR      r1,|L1.1036|
00002e  60c1              STR      r1,[r0,#0xc]
;;;182                               (0x09 << 24) ; /* PLL1 is SSP0 clock source        */
;;;183    
;;;184      LPC_CGU->BASE_LCD_CLK  = (1    << 11) |
000030  49f8              LDR      r1,|L1.1044|
000032  6001              STR      r1,[r0,#0]
;;;185                               (0x10 << 24) ; /* IDIVE is clock source            */
;;;186    
;;;187      /* Enable GPIO register interface clock */
;;;188      LPC_CCU1->CLK_M3_GPIO_CFG  = CCU_CLK_CFG_AUTO | CCU_CLK_CFG_RUN;
000034  49f8              LDR      r1,|L1.1048|
000036  2003              MOVS     r0,#3
000038  6008              STR      r0,[r1,#0]
;;;189      while (!(LPC_CCU1->CLK_M3_GPIO_STAT & CCU_CLK_STAT_RUN));
00003a  1d09              ADDS     r1,r1,#4
                  |L1.60|
00003c  680a              LDR      r2,[r1,#0]
00003e  07d2              LSLS     r2,r2,#31
000040  d0fc              BEQ      |L1.60|
;;;190    
;;;191      /* Enable SSP0 register interface clock */
;;;192      LPC_CCU1->CLK_M3_SSP0_CFG  = CCU_CLK_CFG_AUTO | CCU_CLK_CFG_RUN;
000042  49f6              LDR      r1,|L1.1052|
000044  6008              STR      r0,[r1,#0]
;;;193      while (!(LPC_CCU1->CLK_M3_SSP0_STAT & CCU_CLK_STAT_RUN));
000046  1d09              ADDS     r1,r1,#4
                  |L1.72|
000048  680a              LDR      r2,[r1,#0]
00004a  07d2              LSLS     r2,r2,#31
00004c  d0fc              BEQ      |L1.72|
;;;194    
;;;195      /* Enable LCD clock */
;;;196      LPC_CCU1->CLK_M3_LCD_CFG   = CCU_CLK_CFG_AUTO | CCU_CLK_CFG_RUN;
00004e  49f2              LDR      r1,|L1.1048|
000050  3108              ADDS     r1,r1,#8
000052  6008              STR      r0,[r1,#0]
;;;197      while (!(LPC_CCU1->CLK_M3_LCD_STAT & CCU_CLK_STAT_RUN));
000054  1d08              ADDS     r0,r1,#4
                  |L1.86|
000056  6801              LDR      r1,[r0,#0]
000058  07c9              LSLS     r1,r1,#31
00005a  d0fc              BEQ      |L1.86|
;;;198    
;;;199    
;;;200      /* Configure SSP0 peripheral -----------------------------------------------*/
;;;201      LPC_SSP0->CR0  = (1<<7)|(1<<6)|0x7;   /* 8-bit transfer CPHA = 1, CPOL = 1  */
00005c  48f0              LDR      r0,|L1.1056|
00005e  21c7              MOVS     r1,#0xc7
000060  6001              STR      r1,[r0,#0]
;;;202      LPC_SSP0->CPSR = 0x08;                /* SPI Clock = PCLK / (8 + 1)         */
000062  2108              MOVS     r1,#8
000064  6101              STR      r1,[r0,#0x10]
;;;203      LPC_SSP0->CR1  = (0<<2)|(1<<1);       /* Enable SSP controller, master mode */
000066  2102              MOVS     r1,#2
000068  6041              STR      r1,[r0,#4]
;;;204    
;;;205      /* Configure SPI peripheral pins -------------------------------------------*/
;;;206      LPC_SCU->SFSPF_0  = SPI_PIN_SET | 0;  /* PF_0: SCL (SSP0 pin)               */
00006a  48ee              LDR      r0,|L1.1060|
00006c  22e0              MOVS     r2,#0xe0
00006e  6002              STR      r2,[r0,#0]
;;;207      LPC_SCU->SFSPF_1  = SPI_PIN_SET | 4;  /* PF_1: CS  (GPIO7[16] pin)          */
000070  49ec              LDR      r1,|L1.1060|
000072  20e4              MOVS     r0,#0xe4
000074  1d09              ADDS     r1,r1,#4
000076  6008              STR      r0,[r1,#0]
;;;208      LPC_SCU->SFSPF_2  = SPI_PIN_SET | 2;  /* PF_2: SDO (SSP0 pin)               */
000078  20e2              MOVS     r0,#0xe2
00007a  1d09              ADDS     r1,r1,#4
00007c  6008              STR      r0,[r1,#0]
;;;209      LPC_SCU->SFSPF_3  = SPI_PIN_SET | 2;  /* PF_3: SDI (SSP0 pin)               */
00007e  1d09              ADDS     r1,r1,#4
000080  6008              STR      r0,[r1,#0]
;;;210    
;;;211      LPC_GPIO_PORT->DIR[7] |= PIN_CS;      /* Chip select pin is GPIO output     */
000082  4ce9              LDR      r4,|L1.1064|
000084  69e1              LDR      r1,[r4,#0x1c]
000086  f4413180          ORR      r1,r1,#0x10000
00008a  61e1              STR      r1,[r4,#0x1c]
;;;212    
;;;213      /* Configure LCD controller pins -------------------------------------------*/
;;;214      LPC_SCU->SFSP4_1  = LCD_PIN_SET | 5;  /* P4_1:  LCD_VD19                    */
00008c  49e7              LDR      r1,|L1.1068|
00008e  23e5              MOVS     r3,#0xe5
000090  600b              STR      r3,[r1,#0]
;;;215      LPC_SCU->SFSP4_2  = LCD_PIN_SET | 2;  /* P4_2:  LCD_VD3                     */
000092  6048              STR      r0,[r1,#4]
;;;216      LPC_SCU->SFSP4_5  = LCD_PIN_SET | 2;  /* P4_5:  LCD_VSYNC                   */
000094  6108              STR      r0,[r1,#0x10]
;;;217      LPC_SCU->SFSP4_6  = LCD_PIN_SET | 2;  /* P4_6:  LCD_EN                      */
000096  6148              STR      r0,[r1,#0x14]
;;;218      LPC_SCU->SFSP4_7  = LCD_PIN_SET | 0;  /* P4_7:  LCD_DOTCLK                  */
000098  618a              STR      r2,[r1,#0x18]
;;;219      LPC_SCU->SFSP4_9  = LCD_PIN_SET | 2;  /* P4_9:  LCD_VD11                    */
00009a  6208              STR      r0,[r1,#0x20]
;;;220      LPC_SCU->SFSP4_10 = LCD_PIN_SET | 2;  /* P4_10: LCD_VD10                    */
00009c  6248              STR      r0,[r1,#0x24]
;;;221    
;;;222      LPC_SCU->SFSP7_0  = LCD_NPR_SET | 0;  /* P7_0:  LCD_BL_EN                   */
00009e  2230              MOVS     r2,#0x30
0000a0  f8c1217c          STR      r2,[r1,#0x17c]
;;;223      LPC_SCU->SFSP7_6  = LCD_PIN_SET | 3;  /* P7_6:  LCD_HSYNC                   */
0000a4  22e3              MOVS     r2,#0xe3
0000a6  f8c12194          STR      r2,[r1,#0x194]
;;;224    
;;;225      LPC_SCU->SFSP8_3  = LCD_PIN_SET | 3;  /* P8_3:  LCD_VD12                    */
0000aa  49e1              LDR      r1,|L1.1072|
0000ac  600a              STR      r2,[r1,#0]
;;;226      LPC_SCU->SFSP8_4  = LCD_PIN_SET | 3;  /* P8_4:  LCD_VD7                     */
0000ae  1d09              ADDS     r1,r1,#4
0000b0  600a              STR      r2,[r1,#0]
;;;227      LPC_SCU->SFSP8_5  = LCD_PIN_SET | 3;  /* P8_5:  LCD_VD6                     */
0000b2  1d09              ADDS     r1,r1,#4
0000b4  600a              STR      r2,[r1,#0]
;;;228      LPC_SCU->SFSP8_6  = LCD_PIN_SET | 3;  /* P8_6:  LCD_VD5                     */
0000b6  1d09              ADDS     r1,r1,#4
0000b8  600a              STR      r2,[r1,#0]
;;;229      LPC_SCU->SFSP8_7  = LCD_PIN_SET | 3;  /* P8_7:  LCD_VD4                     */
0000ba  1d09              ADDS     r1,r1,#4
0000bc  600a              STR      r2,[r1,#0]
;;;230    
;;;231      LPC_SCU->SFSPB_0  = LCD_PIN_SET | 2;  /* PB_0:  LCD_VD23                    */
0000be  49dd              LDR      r1,|L1.1076|
0000c0  6008              STR      r0,[r1,#0]
;;;232      LPC_SCU->SFSPB_1  = LCD_PIN_SET | 2;  /* PB_1:  LCD_VD22                    */
0000c2  1d09              ADDS     r1,r1,#4
0000c4  6008              STR      r0,[r1,#0]
;;;233      LPC_SCU->SFSPB_2  = LCD_PIN_SET | 2;  /* PB_2:  LCD_VD21                    */
0000c6  1d09              ADDS     r1,r1,#4
0000c8  6008              STR      r0,[r1,#0]
;;;234      LPC_SCU->SFSPB_3  = LCD_PIN_SET | 2;  /* PB_3:  LCD_VD20                    */
0000ca  1d09              ADDS     r1,r1,#4
0000cc  6008              STR      r0,[r1,#0]
;;;235      LPC_SCU->SFSPB_4  = LCD_PIN_SET | 2;  /* PB_4:  LCD_VD15                    */
0000ce  1d09              ADDS     r1,r1,#4
0000d0  6008              STR      r0,[r1,#0]
;;;236      LPC_SCU->SFSPB_5  = LCD_PIN_SET | 2;  /* PB_5:  LCD_VD14                    */
0000d2  1d09              ADDS     r1,r1,#4
0000d4  6008              STR      r0,[r1,#0]
;;;237      LPC_SCU->SFSPB_6  = LCD_PIN_SET | 2;  /* PB_6:  LCD_VD13                    */
0000d6  1d09              ADDS     r1,r1,#4
0000d8  6008              STR      r0,[r1,#0]
;;;238    
;;;239    
;;;240      /* LCD with HX8347-D LCD Controller                                         */
;;;241      /* Driving ability settings ------------------------------------------------*/
;;;242      wr_reg(0xEA, 0x00);                   /* Power control internal used (1)    */
0000da  2100              MOVS     r1,#0
0000dc  20ea              MOVS     r0,#0xea
0000de  f7fffffe          BL       wr_reg
;;;243      wr_reg(0xEB, 0x20);                   /* Power control internal used (2)    */
0000e2  2120              MOVS     r1,#0x20
0000e4  20eb              MOVS     r0,#0xeb
0000e6  f7fffffe          BL       wr_reg
;;;244      wr_reg(0xEC, 0x0C);                   /* Source control internal used (1)   */
0000ea  210c              MOVS     r1,#0xc
0000ec  20ec              MOVS     r0,#0xec
0000ee  f7fffffe          BL       wr_reg
;;;245      wr_reg(0xED, 0xC7);                   /* Source control internal used (2)   */
0000f2  21c7              MOVS     r1,#0xc7
0000f4  20ed              MOVS     r0,#0xed
0000f6  f7fffffe          BL       wr_reg
;;;246      wr_reg(0xE8, 0x38);                   /* Source output period Normal mode   */
0000fa  2138              MOVS     r1,#0x38
0000fc  20e8              MOVS     r0,#0xe8
0000fe  f7fffffe          BL       wr_reg
;;;247      wr_reg(0xE9, 0x10);                   /* Source output period Idle mode     */
000102  2110              MOVS     r1,#0x10
000104  20e9              MOVS     r0,#0xe9
000106  f7fffffe          BL       wr_reg
;;;248      wr_reg(0xF1, 0x01);                   /* RGB 18-bit interface ;0x0110       */
00010a  2101              MOVS     r1,#1
00010c  20f1              MOVS     r0,#0xf1
00010e  f7fffffe          BL       wr_reg
;;;249      wr_reg(0xF2, 0x10);
000112  2110              MOVS     r1,#0x10
000114  20f2              MOVS     r0,#0xf2
000116  f7fffffe          BL       wr_reg
;;;250    
;;;251      /* Adjust the Gamma Curve --------------------------------------------------*/
;;;252      wr_reg(0x40, 0x01);
00011a  2101              MOVS     r1,#1
00011c  2040              MOVS     r0,#0x40
00011e  f7fffffe          BL       wr_reg
;;;253      wr_reg(0x41, 0x00);
000122  2100              MOVS     r1,#0
000124  2041              MOVS     r0,#0x41
000126  f7fffffe          BL       wr_reg
;;;254      wr_reg(0x42, 0x00);
00012a  2100              MOVS     r1,#0
00012c  2042              MOVS     r0,#0x42
00012e  f7fffffe          BL       wr_reg
;;;255      wr_reg(0x43, 0x10);
000132  2110              MOVS     r1,#0x10
000134  2043              MOVS     r0,#0x43
000136  f7fffffe          BL       wr_reg
;;;256      wr_reg(0x44, 0x0E);
00013a  210e              MOVS     r1,#0xe
00013c  2044              MOVS     r0,#0x44
00013e  f7fffffe          BL       wr_reg
;;;257      wr_reg(0x45, 0x24);
000142  2124              MOVS     r1,#0x24
000144  2045              MOVS     r0,#0x45
000146  f7fffffe          BL       wr_reg
;;;258      wr_reg(0x46, 0x04);
00014a  2104              MOVS     r1,#4
00014c  2046              MOVS     r0,#0x46
00014e  f7fffffe          BL       wr_reg
;;;259      wr_reg(0x47, 0x50);
000152  2150              MOVS     r1,#0x50
000154  2047              MOVS     r0,#0x47
000156  f7fffffe          BL       wr_reg
;;;260      wr_reg(0x48, 0x02);
00015a  2102              MOVS     r1,#2
00015c  2048              MOVS     r0,#0x48
00015e  f7fffffe          BL       wr_reg
;;;261      wr_reg(0x49, 0x13);
000162  2113              MOVS     r1,#0x13
000164  2049              MOVS     r0,#0x49
000166  f7fffffe          BL       wr_reg
;;;262      wr_reg(0x4A, 0x19);
00016a  2119              MOVS     r1,#0x19
00016c  204a              MOVS     r0,#0x4a
00016e  f7fffffe          BL       wr_reg
;;;263      wr_reg(0x4B, 0x19);
000172  2119              MOVS     r1,#0x19
000174  204b              MOVS     r0,#0x4b
000176  f7fffffe          BL       wr_reg
;;;264      wr_reg(0x4C, 0x16);
00017a  2116              MOVS     r1,#0x16
00017c  204c              MOVS     r0,#0x4c
00017e  f7fffffe          BL       wr_reg
;;;265    
;;;266      wr_reg(0x50, 0x1B);
000182  211b              MOVS     r1,#0x1b
000184  2050              MOVS     r0,#0x50
000186  f7fffffe          BL       wr_reg
;;;267      wr_reg(0x51, 0x31);
00018a  2131              MOVS     r1,#0x31
00018c  2051              MOVS     r0,#0x51
00018e  f7fffffe          BL       wr_reg
;;;268      wr_reg(0x52, 0x2F);
000192  212f              MOVS     r1,#0x2f
000194  2052              MOVS     r0,#0x52
000196  f7fffffe          BL       wr_reg
;;;269      wr_reg(0x53, 0x3F);
00019a  213f              MOVS     r1,#0x3f
00019c  2053              MOVS     r0,#0x53
00019e  f7fffffe          BL       wr_reg
;;;270      wr_reg(0x54, 0x3F);
0001a2  213f              MOVS     r1,#0x3f
0001a4  2054              MOVS     r0,#0x54
0001a6  f7fffffe          BL       wr_reg
;;;271      wr_reg(0x55, 0x3E);
0001aa  213e              MOVS     r1,#0x3e
0001ac  2055              MOVS     r0,#0x55
0001ae  f7fffffe          BL       wr_reg
;;;272      wr_reg(0x56, 0x2F);
0001b2  212f              MOVS     r1,#0x2f
0001b4  2056              MOVS     r0,#0x56
0001b6  f7fffffe          BL       wr_reg
;;;273      wr_reg(0x57, 0x7B);
0001ba  217b              MOVS     r1,#0x7b
0001bc  2057              MOVS     r0,#0x57
0001be  f7fffffe          BL       wr_reg
;;;274      wr_reg(0x58, 0x09);
0001c2  2109              MOVS     r1,#9
0001c4  2058              MOVS     r0,#0x58
0001c6  f7fffffe          BL       wr_reg
;;;275      wr_reg(0x59, 0x06);
0001ca  2106              MOVS     r1,#6
0001cc  2059              MOVS     r0,#0x59
0001ce  f7fffffe          BL       wr_reg
;;;276      wr_reg(0x5A, 0x06);
0001d2  2106              MOVS     r1,#6
0001d4  205a              MOVS     r0,#0x5a
0001d6  f7fffffe          BL       wr_reg
;;;277      wr_reg(0x5B, 0x0C);
0001da  210c              MOVS     r1,#0xc
0001dc  205b              MOVS     r0,#0x5b
0001de  f7fffffe          BL       wr_reg
;;;278      wr_reg(0x5C, 0x1D);
0001e2  211d              MOVS     r1,#0x1d
0001e4  205c              MOVS     r0,#0x5c
0001e6  f7fffffe          BL       wr_reg
;;;279      wr_reg(0x5D, 0xCC);
0001ea  21cc              MOVS     r1,#0xcc
0001ec  205d              MOVS     r0,#0x5d
0001ee  f7fffffe          BL       wr_reg
;;;280    
;;;281      /* Power voltage setting ---------------------------------------------------*/
;;;282      wr_reg(0x1B, 0x1B);
0001f2  211b              MOVS     r1,#0x1b
0001f4  4608              MOV      r0,r1
0001f6  f7fffffe          BL       wr_reg
;;;283      wr_reg(0x1A, 0x01);
0001fa  2101              MOVS     r1,#1
0001fc  201a              MOVS     r0,#0x1a
0001fe  f7fffffe          BL       wr_reg
;;;284      wr_reg(0x24, 0x2F);
000202  212f              MOVS     r1,#0x2f
000204  2024              MOVS     r0,#0x24
000206  f7fffffe          BL       wr_reg
;;;285      wr_reg(0x25, 0x57);
00020a  2157              MOVS     r1,#0x57
00020c  2025              MOVS     r0,#0x25
00020e  f7fffffe          BL       wr_reg
;;;286      wr_reg(0x23, 0x88);
000212  2188              MOVS     r1,#0x88
000214  2023              MOVS     r0,#0x23
000216  f7fffffe          BL       wr_reg
;;;287    
;;;288      /* Power on setting --------------------------------------------------------*/
;;;289      wr_reg(0x18, 0x36);                   /* Internal oscillator frequency adj  */
00021a  2136              MOVS     r1,#0x36
00021c  2018              MOVS     r0,#0x18
00021e  f7fffffe          BL       wr_reg
;;;290      wr_reg(0x19, 0x01);                   /* Enable internal oscillator         */
000222  2101              MOVS     r1,#1
000224  2019              MOVS     r0,#0x19
000226  f7fffffe          BL       wr_reg
;;;291      wr_reg(0x01, 0x00);                   /* Normal mode, no scrool             */
00022a  2100              MOVS     r1,#0
00022c  2001              MOVS     r0,#1
00022e  f7fffffe          BL       wr_reg
;;;292      wr_reg(0x1F, 0x88);                   /* Power control 6 - DDVDH Off        */
000232  2188              MOVS     r1,#0x88
000234  201f              MOVS     r0,#0x1f
000236  f7fffffe          BL       wr_reg
;;;293      delay(20);
00023a  2014              MOVS     r0,#0x14
00023c  f7fffffe          BL       delay
;;;294      wr_reg(0x1F, 0x82);                   /* Power control 6 - Step-up: 3 x VCI */
000240  2182              MOVS     r1,#0x82
000242  201f              MOVS     r0,#0x1f
000244  f7fffffe          BL       wr_reg
;;;295      delay(5);
000248  2005              MOVS     r0,#5
00024a  f7fffffe          BL       delay
;;;296      wr_reg(0x1F, 0x92);                   /* Power control 6 - Step-up: On      */
00024e  2192              MOVS     r1,#0x92
000250  201f              MOVS     r0,#0x1f
000252  f7fffffe          BL       wr_reg
;;;297      delay(5);
000256  2005              MOVS     r0,#5
000258  f7fffffe          BL       delay
;;;298      wr_reg(0x1F, 0xD2);                   /* Power control 6 - VCOML active     */
00025c  21d2              MOVS     r1,#0xd2
00025e  201f              MOVS     r0,#0x1f
000260  f7fffffe          BL       wr_reg
;;;299      delay(5);
000264  2005              MOVS     r0,#5
000266  f7fffffe          BL       delay
;;;300    
;;;301      /* Color selection ---------------------------------------------------------*/
;;;302      wr_reg(0x17, 0x55);                   /* RGB, System interface: 16 Bit/Pixel*/
00026a  2155              MOVS     r1,#0x55
00026c  2017              MOVS     r0,#0x17
00026e  f7fffffe          BL       wr_reg
;;;303      wr_reg(0x00, 0x00);                   /* Scrolling off, no standby          */
000272  2100              MOVS     r1,#0
000274  4608              MOV      r0,r1
000276  f7fffffe          BL       wr_reg
;;;304    
;;;305      /* Interface config --------------------------------------------------------*/
;;;306      wr_reg(0x2F, 0x11);                   /* LCD Drive: 1-line inversion        */
00027a  2111              MOVS     r1,#0x11
00027c  202f              MOVS     r0,#0x2f
00027e  f7fffffe          BL       wr_reg
;;;307      wr_reg(0x31, 0x02);                   /* Value for SPI: 0x02, RBG: 0x02     */
000282  2102              MOVS     r1,#2
000284  2031              MOVS     r0,#0x31
000286  f7fffffe          BL       wr_reg
;;;308      wr_reg(0x32, 0x00);                   /* DPL=0, HSPL=0, VSPL=0, EPL=0       */
00028a  2100              MOVS     r1,#0
00028c  2032              MOVS     r0,#0x32
00028e  f7fffffe          BL       wr_reg
;;;309    
;;;310      /* Display on setting ------------------------------------------------------*/
;;;311      wr_reg(0x28, 0x38);                   /* PT(0,0) active, VGL/VGL            */
000292  2138              MOVS     r1,#0x38
000294  2028              MOVS     r0,#0x28
000296  f7fffffe          BL       wr_reg
;;;312      delay(20);
00029a  2014              MOVS     r0,#0x14
00029c  f7fffffe          BL       delay
;;;313      wr_reg(0x28, 0x3C);                   /* Display active, VGL/VGL            */
0002a0  213c              MOVS     r1,#0x3c
0002a2  2028              MOVS     r0,#0x28
0002a4  f7fffffe          BL       wr_reg
;;;314    
;;;315    /*                  MY         MX         MV         ML         BGR           */
;;;316    #if (LANDSCAPE == 1)
;;;317     #if (ROTATE180 == 0)
;;;318      wr_reg (0x16, ((1 << 7) | (0 << 6) | (0 << 5) | (0 << 4) | (0 << 3)));
0002a8  2180              MOVS     r1,#0x80
0002aa  2016              MOVS     r0,#0x16
0002ac  f7fffffe          BL       wr_reg
;;;319     #else
;;;320      wr_reg (0x16, ((0 << 7) | (1 << 6) | (0 << 5) | (1 << 4) | (0 << 3)));
;;;321     #endif
;;;322    #else /* Portrait */
;;;323     #if (ROTATE180 == 0)
;;;324      wr_reg (0x16, ((0 << 7) | (0 << 6) | (0 << 5) | (0 << 4) | (0 << 3)));
;;;325     #else
;;;326      wr_reg (0x16, ((1 << 7) | (1 << 6) | (0 << 5) | (0 << 4) | (0 << 3)));
;;;327     #endif
;;;328    #endif
;;;329    
;;;330      /* Display scrolling settings ----------------------------------------------*/
;;;331      wr_reg(0x0E, 0x00);                   /* TFA MSB                            */
0002b0  2100              MOVS     r1,#0
0002b2  200e              MOVS     r0,#0xe
0002b4  f7fffffe          BL       wr_reg
;;;332      wr_reg(0x0F, 0x00);                   /* TFA LSB                            */
0002b8  2100              MOVS     r1,#0
0002ba  200f              MOVS     r0,#0xf
0002bc  f7fffffe          BL       wr_reg
;;;333      wr_reg(0x10, 320 >> 8);               /* VSA MSB                            */
0002c0  2101              MOVS     r1,#1
0002c2  2010              MOVS     r0,#0x10
0002c4  f7fffffe          BL       wr_reg
;;;334      wr_reg(0x11, 320 &  0xFF);            /* VSA LSB                            */
0002c8  2140              MOVS     r1,#0x40
0002ca  2011              MOVS     r0,#0x11
0002cc  f7fffffe          BL       wr_reg
;;;335      wr_reg(0x12, 0x00);                   /* BFA MSB                            */
0002d0  2100              MOVS     r1,#0
0002d2  2012              MOVS     r0,#0x12
0002d4  f7fffffe          BL       wr_reg
;;;336      wr_reg(0x13, 0x00);                   /* BFA LSB                            */
0002d8  2100              MOVS     r1,#0
0002da  2013              MOVS     r0,#0x13
0002dc  f7fffffe          BL       wr_reg
;;;337    
;;;338    
;;;339      /* Configure LCD controller ------------------------------------------------*/
;;;340      LPC_RGU->RESET_CTRL0 = (1U << 16);
0002e0  4855              LDR      r0,|L1.1080|
0002e2  f44f3180          MOV      r1,#0x10000
0002e6  f8c01100          STR      r1,[r0,#0x100]
;;;341      while ((LPC_RGU->RESET_ACTIVE_STATUS0 & (1U << 16)) == 0);
0002ea  bf00              NOP      
                  |L1.748|
0002ec  f8d01150          LDR      r1,[r0,#0x150]
0002f0  03c9              LSLS     r1,r1,#15
0002f2  d5fb              BPL      |L1.748|
;;;342    
;;;343      LPC_LCD->CTRL &= ~(1 << 0);           /* Disable LCD                        */
0002f4  4851              LDR      r0,|L1.1084|
0002f6  6981              LDR      r1,[r0,#0x18]
0002f8  f0210101          BIC      r1,r1,#1
0002fc  6181              STR      r1,[r0,#0x18]
;;;344      LPC_LCD->INTMSK = 0;                  /* Disable all interrupts             */
0002fe  2200              MOVS     r2,#0
000300  61c2              STR      r2,[r0,#0x1c]
;;;345    
;;;346      LPC_LCD->UPBASE = SDRAM_BASE_ADDR;
000302  f04f5120          MOV      r1,#0x28000000
000306  6101              STR      r1,[r0,#0x10]
;;;347    
;;;348      LPC_LCD->TIMH  = (7    << 24) |       /* Horizontal back porch              */
000308  494d              LDR      r1,|L1.1088|
00030a  6001              STR      r1,[r0,#0]
;;;349                       (3    << 16) |       /* Horizontal front porch             */
;;;350                       (3    <<  8) |       /* Horizontal sync pulse width        */
;;;351                       (14   <<  2) ;       /* Pixels-per-line                    */
;;;352      LPC_LCD->TIMV  = (3    << 24) |       /* Vertical back porch                */
00030c  494d              LDR      r1,|L1.1092|
00030e  6041              STR      r1,[r0,#4]
;;;353                       (2    << 16) |       /* Vertical front porch               */
;;;354                       (3    << 10) |       /* Vertical sync pulse width          */
;;;355                       (319  <<  0) ;       /* Lines per panel                    */
;;;356      LPC_LCD->POL   = (1    << 26) |       /* Bypass pixel clock divider         */
000310  494d              LDR      r1,|L1.1096|
000312  6081              STR      r1,[r0,#8]
;;;357                       (239  << 16) |       /* Clocks per line: num of LCDCLKs    */
;;;358                       (1    << 13) |       /* Invert panel clock                 */
;;;359                       (1    << 12) |       /* Invert HSYNC                       */
;;;360                       (1    << 11) ;       /* Invert VSYNC                       */
;;;361      LPC_LCD->LE    = (1    << 16) |       /* LCDLE Enabled: 1, Disabled: 0      */
000314  494d              LDR      r1,|L1.1100|
000316  60c1              STR      r1,[r0,#0xc]
;;;362                       (9    <<  0) ;       /* Line-end delay: LCDCLK clocks - 1  */
;;;363      LPC_LCD->CTRL  = (1    << 11) |       /* LCD Power Enable                   */
000318  f640012c          MOV      r1,#0x82c
00031c  6181              STR      r1,[r0,#0x18]
;;;364                       (1    <<  5) |       /* 0 = STN display, 1: TFT display    */
;;;365                       (6    <<  1) ;       /* Bits per pixel: 16bpp (5:6:5)      */
;;;366    
;;;367      for (i = 0; i < 256; i++) {
00031e  4611              MOV      r1,r2
                  |L1.800|
;;;368        LPC_LCD->PAL[i] = 0;                /* Clear palette                      */
000320  eb000381          ADD      r3,r0,r1,LSL #2
000324  f8c32200          STR      r2,[r3,#0x200]
000328  1c49              ADDS     r1,r1,#1              ;367
00032a  29ff              CMP      r1,#0xff              ;367
00032c  d9f8              BLS      |L1.800|
;;;369      }
;;;370      LPC_LCD->CTRL |= (1 <<  0);           /* LCD enable                         */
00032e  6981              LDR      r1,[r0,#0x18]
000330  f0410101          ORR      r1,r1,#1
000334  6181              STR      r1,[r0,#0x18]
;;;371    
;;;372      /* Turn on backlight -------------------------------------------------------*/
;;;373      LPC_GPIO_PORT->DIR[3] |= (1 << 8);
000336  68e0              LDR      r0,[r4,#0xc]
000338  f4407080          ORR      r0,r0,#0x100
00033c  60e0              STR      r0,[r4,#0xc]
;;;374      LPC_GPIO_PORT->SET[3] =  (1 << 8);
00033e  f44f7080          MOV      r0,#0x100
000342  f8c4020c          STR      r0,[r4,#0x20c]
;;;375    }
000346  bd10              POP      {r4,pc}
;;;376    
                          ENDP

                  GLCD_PutPixel PROC
;;;383    *******************************************************************************/
;;;384    void GLCD_PutPixel (unsigned int x, unsigned int y) {
000348  ebc01000          RSB      r0,r0,r0,LSL #4
;;;385     #if (LANDSCAPE == 0)
;;;386      fb[y*PHYS_XSZ + x] = Color[TXT_COLOR];
;;;387     #else
;;;388      fb[x*PHYS_XSZ + y] = Color[TXT_COLOR];
00034c  eb011000          ADD      r0,r1,r0,LSL #4
000350  493f              LDR      r1,|L1.1104|
000352  4a3f              LDR      r2,|L1.1104|
000354  1f09              SUBS     r1,r1,#4
000356  6809              LDR      r1,[r1,#0]  ; fb
000358  8852              LDRH     r2,[r2,#2]  ; Color
00035a  f8212010          STRH     r2,[r1,r0,LSL #1]
;;;389     #endif
;;;390    }
00035e  4770              BX       lr
;;;391    
                          ENDP

                  GLCD_SetTextColor PROC
;;;398    
;;;399    void GLCD_SetTextColor (unsigned short color) {
000360  493b              LDR      r1,|L1.1104|
;;;400    
;;;401      Color[TXT_COLOR] = color;
000362  8048              STRH     r0,[r1,#2]
;;;402    }
000364  4770              BX       lr
;;;403    
                          ENDP

                  GLCD_SetBackColor PROC
;;;410    
;;;411    void GLCD_SetBackColor (unsigned short color) {
000366  493a              LDR      r1,|L1.1104|
;;;412    
;;;413      Color[BG_COLOR] = color;
000368  8008              STRH     r0,[r1,#0]
;;;414    }
00036a  4770              BX       lr
;;;415    
                          ENDP

                  GLCD_Clear PROC
;;;422    
;;;423    void GLCD_Clear (unsigned short color) {
00036c  4a38              LDR      r2,|L1.1104|
;;;424      unsigned int i;
;;;425    
;;;426      for (i = 0; i < (WIDTH*HEIGHT); i++) {
00036e  2100              MOVS     r1,#0
;;;427        fb[i] = color;
000370  1f12              SUBS     r2,r2,#4
000372  f44f3396          MOV      r3,#0x12c00           ;426
000376  6812              LDR      r2,[r2,#0]  ; fb
                  |L1.888|
000378  f8220011          STRH     r0,[r2,r1,LSL #1]
00037c  1c49              ADDS     r1,r1,#1              ;426
00037e  4299              CMP      r1,r3                 ;426
000380  d3fa              BCC      |L1.888|
;;;428      }
;;;429    }
000382  4770              BX       lr
;;;430    
                          ENDP

                  GLCD_DrawLine PROC
;;;440    *******************************************************************************/
;;;441    void GLCD_DrawLine (unsigned int x, unsigned int y, unsigned int len, unsigned int dir) {
000384  b570              PUSH     {r4-r6,lr}
000386  4614              MOV      r4,r2
000388  460d              MOV      r5,r1
00038a  4606              MOV      r6,r0
00038c  b133              CBZ      r3,|L1.924|
;;;442      uint32_t i;
;;;443    
;;;444      if (dir == 0) {                       /* Vertical line                      */
;;;445        for (i = 0; i < len; i++) { GLCD_PutPixel (x, y + i); }
;;;446      }
;;;447      else {                                /* Horizontal line                    */
;;;448        for (i = 0; i < len; i++) { GLCD_PutPixel (x + i, y); }
00038e  2300              MOVS     r3,#0
000390  e00c              B        |L1.940|
                  |L1.914|
000392  18e9              ADDS     r1,r5,r3              ;445
000394  4630              MOV      r0,r6                 ;445
000396  f7fffffe          BL       GLCD_PutPixel
00039a  1c5b              ADDS     r3,r3,#1              ;445
                  |L1.924|
00039c  42a3              CMP      r3,r4                 ;445
00039e  d3f8              BCC      |L1.914|
;;;449      }
;;;450    }
0003a0  bd70              POP      {r4-r6,pc}
                  |L1.930|
0003a2  18f0              ADDS     r0,r6,r3              ;448
0003a4  4629              MOV      r1,r5                 ;448
0003a6  f7fffffe          BL       GLCD_PutPixel
0003aa  1c5b              ADDS     r3,r3,#1              ;448
                  |L1.940|
0003ac  42a3              CMP      r3,r4                 ;448
0003ae  d3f8              BCC      |L1.930|
0003b0  bd70              POP      {r4-r6,pc}
;;;451    
                          ENDP

                  GLCD_DrawChar PROC
;;;462    
;;;463    void GLCD_DrawChar (unsigned int x, unsigned int y, unsigned int cw, unsigned int ch, unsigned char *c) {
0003b2  e92d4ff0          PUSH     {r4-r11,lr}
0003b6  468a              MOV      r10,r1
;;;464      unsigned int i, j, k, pixs;
;;;465    
;;;466      k  = (cw + 7)/8;
0003b8  1dd1              ADDS     r1,r2,#7
0003ba  08ce              LSRS     r6,r1,#3
;;;467    
;;;468      if (k == 1) {
;;;469        for (j = 0; j < ch; j++) {
;;;470          pixs = *(unsigned char *)c;
;;;471          c += 1;
;;;472        
;;;473          for (i = 0; i < cw; i++) {
;;;474           #if (LANDSCAPE == 0)
;;;475            fb[(y+j)*PHYS_XSZ + (x+i)] = Color[(pixs >> i) & 1];
;;;476           #else
;;;477            fb[(x+i)*PHYS_XSZ + (y+j)] = Color[(pixs >> i) & 1];
0003bc  4924              LDR      r1,|L1.1104|
0003be  9d09              LDR      r5,[sp,#0x24]
0003c0  1f09              SUBS     r1,r1,#4
0003c2  4c23              LDR      r4,|L1.1104|
0003c4  6809              LDR      r1,[r1,#0]
0003c6  2e01              CMP      r6,#1                 ;468
0003c8  d004              BEQ      |L1.980|
;;;478           #endif
;;;479          }
;;;480        }
;;;481      }
;;;482      else if (k == 2) {
0003ca  2e02              CMP      r6,#2
0003cc  d147              BNE      |L1.1118|
;;;483        for (j = 0; j < ch; j++) {
0003ce  2600              MOVS     r6,#0
0003d0  46a3              MOV      r11,r4                ;477
0003d2  e05f              B        |L1.1172|
                  |L1.980|
0003d4  2600              MOVS     r6,#0                 ;469
0003d6  46a3              MOV      r11,r4                ;477
0003d8  e03f              B        |L1.1114|
0003da  bf00              NOP                            ;470
                  |L1.988|
0003dc  f8159b01          LDRB     r9,[r5],#1            ;470
0003e0  2400              MOVS     r4,#0                 ;473
0003e2  eb0a0706          ADD      r7,r10,r6             ;477
0003e6  e00e              B        |L1.1030|
                  |L1.1000|
0003e8  fa29fc04          LSR      r12,r9,r4             ;477
0003ec  f00c0801          AND      r8,r12,#1             ;477
0003f0  f83bc018          LDRH     r12,[r11,r8,LSL #1]   ;477
0003f4  eb000804          ADD      r8,r0,r4              ;477
0003f8  ebc81808          RSB      r8,r8,r8,LSL #4       ;477
0003fc  eb071808          ADD      r8,r7,r8,LSL #4       ;477
000400  1c64              ADDS     r4,r4,#1              ;473
000402  f821c018          STRH     r12,[r1,r8,LSL #1]    ;477
                  |L1.1030|
000406  e025              B        |L1.1108|
                  |L1.1032|
                          DCD      0x400f629c
                  |L1.1036|
                          DCD      0x09000800
                  |L1.1040|
                          DCD      0x40050088
                  |L1.1044|
                          DCD      0x10000800
                  |L1.1048|
                          DCD      0x40051410
                  |L1.1052|
                          DCD      0x40051518
                  |L1.1056|
                          DCD      0x40083000
                  |L1.1060|
                          DCD      0x40086780
                  |L1.1064|
                          DCD      0x400f6000
                  |L1.1068|
                          DCD      0x40086204
                  |L1.1072|
                          DCD      0x4008640c
                  |L1.1076|
                          DCD      0x40086580
                  |L1.1080|
                          DCD      0x40053000
                  |L1.1084|
                          DCD      0x40008000
                  |L1.1088|
                          DCD      0x07030338
                  |L1.1092|
                          DCD      0x03020d3f
                  |L1.1096|
                          DCD      0x04ef3800
                  |L1.1100|
                          DCD      0x00010009
                  |L1.1104|
                          DCD      ||.data||+0x4
                  |L1.1108|
000454  4294              CMP      r4,r2                 ;473
000456  d3c7              BCC      |L1.1000|
000458  1c76              ADDS     r6,r6,#1              ;469
                  |L1.1114|
00045a  429e              CMP      r6,r3                 ;469
00045c  d3be              BCC      |L1.988|
                  |L1.1118|
;;;484          pixs = *(unsigned short *)c;
;;;485          c += 2;
;;;486          
;;;487          for (i = 0; i < cw; i++) {
;;;488           #if (LANDSCAPE == 0)
;;;489            fb[(y+j)*PHYS_XSZ + (x+i)] = Color[(pixs >> i) & 1];
;;;490           #else
;;;491            fb[(x+i)*PHYS_XSZ + (y+j)] = Color[(pixs >> i) & 1];
;;;492           #endif
;;;493          }
;;;494        }
;;;495      }
;;;496    }
00045e  e8bd8ff0          POP      {r4-r11,pc}
000462  bf00              NOP                            ;484
                  |L1.1124|
000464  f8359b02          LDRH     r9,[r5],#2            ;484
000468  2400              MOVS     r4,#0                 ;487
00046a  eb0a0706          ADD      r7,r10,r6             ;477
00046e  e00e              B        |L1.1166|
                  |L1.1136|
000470  fa29fc04          LSR      r12,r9,r4             ;491
000474  f00c0801          AND      r8,r12,#1             ;491
000478  f83bc018          LDRH     r12,[r11,r8,LSL #1]   ;491
00047c  eb000804          ADD      r8,r0,r4              ;491
000480  ebc81808          RSB      r8,r8,r8,LSL #4       ;491
000484  eb071808          ADD      r8,r7,r8,LSL #4       ;491
000488  1c64              ADDS     r4,r4,#1              ;487
00048a  f821c018          STRH     r12,[r1,r8,LSL #1]    ;491
                  |L1.1166|
00048e  4294              CMP      r4,r2                 ;487
000490  d3ee              BCC      |L1.1136|
000492  1c76              ADDS     r6,r6,#1              ;483
                  |L1.1172|
000494  429e              CMP      r6,r3                 ;483
000496  d3e5              BCC      |L1.1124|
000498  e7e1              B        |L1.1118|
;;;497    
                          ENDP

                  GLCD_DisplayChar PROC
;;;507    
;;;508    void GLCD_DisplayChar (unsigned int ln, unsigned int col, unsigned char fi, unsigned char c) {
00049a  b518              PUSH     {r3,r4,lr}
;;;509    
;;;510      c -= 32;
00049c  3b20              SUBS     r3,r3,#0x20
00049e  b2db              UXTB     r3,r3
0004a0  b18a              CBZ      r2,|L1.1222|
;;;511      switch (fi) {
0004a2  2a01              CMP      r2,#1
0004a4  d10e              BNE      |L1.1220|
;;;512        case 0:  /* Font 6 x 8 */
;;;513          GLCD_DrawChar(col *  6, ln *  8,  6,  8, (unsigned char *)&Font_6x8_h  [c * 8]);
;;;514          break;
;;;515        case 1:  /* Font 16 x 24 */
;;;516          GLCD_DrawChar(col * 16, ln * 24, 16, 24, (unsigned char *)&Font_16x24_h[c * 24]);
0004a6  eb030243          ADD      r2,r3,r3,LSL #1
0004aa  4b73              LDR      r3,|L1.1656|
0004ac  eb000040          ADD      r0,r0,r0,LSL #1
0004b0  eb031202          ADD      r2,r3,r2,LSL #4
0004b4  00c4              LSLS     r4,r0,#3
0004b6  0108              LSLS     r0,r1,#4
0004b8  2318              MOVS     r3,#0x18
0004ba  9200              STR      r2,[sp,#0]
0004bc  2210              MOVS     r2,#0x10
                  |L1.1214|
0004be  4621              MOV      r1,r4
0004c0  f7fffffe          BL       GLCD_DrawChar
                  |L1.1220|
;;;517          break;
;;;518      }
;;;519    }
0004c4  bd18              POP      {r3,r4,pc}
                  |L1.1222|
0004c6  4a6d              LDR      r2,|L1.1660|
0004c8  00c4              LSLS     r4,r0,#3              ;513
0004ca  eb0202c3          ADD      r2,r2,r3,LSL #3       ;513
0004ce  eb010041          ADD      r0,r1,r1,LSL #1       ;513
0004d2  0040              LSLS     r0,r0,#1              ;513
0004d4  2308              MOVS     r3,#8                 ;513
0004d6  9200              STR      r2,[sp,#0]            ;513
0004d8  2206              MOVS     r2,#6                 ;513
0004da  e7f0              B        |L1.1214|
;;;520    
                          ENDP

                  GLCD_DisplayString PROC
;;;530    
;;;531    void GLCD_DisplayString (unsigned int ln, unsigned int col, unsigned char fi, unsigned char *s) {
0004dc  b5f0              PUSH     {r4-r7,lr}
0004de  461c              MOV      r4,r3
0004e0  4615              MOV      r5,r2
0004e2  460f              MOV      r7,r1
0004e4  4606              MOV      r6,r0
;;;532    
;;;533      while (*s) {
;;;534        GLCD_DisplayChar(ln, col++, fi, *s++);
0004e6  e006              B        |L1.1270|
                  |L1.1256|
0004e8  4639              MOV      r1,r7
0004ea  1c64              ADDS     r4,r4,#1
0004ec  1c7f              ADDS     r7,r7,#1
0004ee  462a              MOV      r2,r5
0004f0  4630              MOV      r0,r6
0004f2  f7fffffe          BL       GLCD_DisplayChar
                  |L1.1270|
0004f6  7823              LDRB     r3,[r4,#0]            ;533
0004f8  2b00              CMP      r3,#0                 ;533
0004fa  d1f5              BNE      |L1.1256|
;;;535      }
;;;536    }
0004fc  bdf0              POP      {r4-r7,pc}
;;;537    
                          ENDP

                  GLCD_DrawString PROC
;;;546    
;;;547    void GLCD_DrawString (unsigned int x, unsigned int y, unsigned char fi, unsigned char *s) {
0004fe  e92d43f8          PUSH     {r3-r9,lr}
000502  461d              MOV      r5,r3
000504  4690              MOV      r8,r2
000506  4689              MOV      r9,r1
;;;548      unsigned char c;
;;;549      unsigned int  cx = x;
000508  4604              MOV      r4,r0
;;;550    
;;;551      while (*s) {
;;;552        c  = *s++;
;;;553        c -= 32;
;;;554        switch (fi) {
;;;555          case 0:  /* Font 6 x 8 */
;;;556            GLCD_DrawChar (cx, y,  6,  8, (unsigned char *)&Font_6x8_h  [c * 8]);
00050a  4e5c              LDR      r6,|L1.1660|
;;;557            cx += 6;
;;;558            break;
;;;559          case 1:  /* Font 16 x 24 */
;;;560            GLCD_DrawChar (cx, y, 16, 24, (unsigned char *)&Font_16x24_h[c * 24]);
00050c  4f5a              LDR      r7,|L1.1656|
00050e  e020              B        |L1.1362|
                  |L1.1296|
000510  3820              SUBS     r0,r0,#0x20           ;553
000512  1c6d              ADDS     r5,r5,#1              ;552
000514  b2c0              UXTB     r0,r0                 ;553
000516  f1b80f00          CMP      r8,#0                 ;554
00051a  d003              BEQ      |L1.1316|
00051c  f1b80f01          CMP      r8,#1                 ;554
000520  d117              BNE      |L1.1362|
000522  e00a              B        |L1.1338|
                  |L1.1316|
000524  eb0600c0          ADD      r0,r6,r0,LSL #3       ;556
000528  9000              STR      r0,[sp,#0]            ;556
00052a  2308              MOVS     r3,#8                 ;556
00052c  2206              MOVS     r2,#6                 ;556
00052e  4649              MOV      r1,r9                 ;556
000530  4620              MOV      r0,r4                 ;556
000532  f7fffffe          BL       GLCD_DrawChar
000536  1da4              ADDS     r4,r4,#6              ;557
000538  e00b              B        |L1.1362|
                  |L1.1338|
00053a  eb000040          ADD      r0,r0,r0,LSL #1
00053e  eb071000          ADD      r0,r7,r0,LSL #4
000542  9000              STR      r0,[sp,#0]
000544  2318              MOVS     r3,#0x18
000546  2210              MOVS     r2,#0x10
000548  4649              MOV      r1,r9
00054a  4620              MOV      r0,r4
00054c  f7fffffe          BL       GLCD_DrawChar
;;;561            cx += 16;
000550  3410              ADDS     r4,r4,#0x10
                  |L1.1362|
000552  7828              LDRB     r0,[r5,#0]            ;551
000554  2800              CMP      r0,#0                 ;551
000556  d1db              BNE      |L1.1296|
;;;562            break;
;;;563        }
;;;564      }
;;;565    }
000558  e8bd83f8          POP      {r3-r9,pc}
;;;566    
                          ENDP

                  GLCD_ClearLn PROC
;;;574    
;;;575    void GLCD_ClearLn (unsigned int ln, unsigned char fi) {
00055c  b530              PUSH     {r4,r5,lr}
00055e  b08f              SUB      sp,sp,#0x3c
000560  2200              MOVS     r2,#0
;;;576      unsigned char i;
;;;577      unsigned char buf[60];
000562  466c              MOV      r4,sp
;;;578    
;;;579      switch (fi) {
;;;580        case 0:  /* Font 6 x 8 */
;;;581          for (i = 0; i < (WIDTH+5)/6; i++)
;;;582            buf[i] = ' ';
000564  2520              MOVS     r5,#0x20
000566  b111              CBZ      r1,|L1.1390|
000568  2901              CMP      r1,#1                 ;579
00056a  d108              BNE      |L1.1406|
00056c  e00e              B        |L1.1420|
                  |L1.1390|
00056e  2300              MOVS     r3,#0                 ;581
                  |L1.1392|
000570  54e5              STRB     r5,[r4,r3]
000572  1c5b              ADDS     r3,r3,#1              ;581
000574  b2db              UXTB     r3,r3                 ;581
000576  2b36              CMP      r3,#0x36              ;581
000578  d3fa              BCC      |L1.1392|
                  |L1.1402|
;;;583          buf[i+1] = 0;
00057a  4423              ADD      r3,r3,r4
00057c  705a              STRB     r2,[r3,#1]
                  |L1.1406|
;;;584          break;
;;;585        case 1:  /* Font 16 x 24 */
;;;586          for (i = 0; i < (WIDTH+15)/16; i++)
;;;587            buf[i] = ' ';
;;;588          buf[i+1] = 0;
;;;589          break;
;;;590      }
;;;591      GLCD_DisplayString (ln, 0, fi, buf);
00057e  460a              MOV      r2,r1
000580  4623              MOV      r3,r4
000582  2100              MOVS     r1,#0
000584  f7fffffe          BL       GLCD_DisplayString
;;;592    }
000588  b00f              ADD      sp,sp,#0x3c
00058a  bd30              POP      {r4,r5,pc}
                  |L1.1420|
00058c  2300              MOVS     r3,#0                 ;586
                  |L1.1422|
00058e  54e5              STRB     r5,[r4,r3]            ;587
000590  1c5b              ADDS     r3,r3,#1              ;586
000592  b2db              UXTB     r3,r3                 ;586
000594  2b14              CMP      r3,#0x14              ;586
000596  d3fa              BCC      |L1.1422|
000598  e7ef              B        |L1.1402|
;;;593    
                          ENDP

                  GLCD_Bargraph PROC
;;;603    
;;;604    void GLCD_Bargraph (unsigned int x, unsigned int y, unsigned int w, unsigned int h, unsigned int val) {
00059a  e92d47f0          PUSH     {r4-r10,lr}
00059e  4681              MOV      r9,r0
;;;605      int i,j;
;;;606    
;;;607      val = (val * w) >> 10;                /* Scale value                        */
0005a0  9808              LDR      r0,[sp,#0x20]
0005a2  468a              MOV      r10,r1                ;604
0005a4  4350              MULS     r0,r2,r0
0005a6  0a86              LSRS     r6,r0,#10
;;;608      for (i = 0; i < h; i++) {
;;;609        for (j = 0; j <= w-1; j++) {
;;;610         #if (LANDSCAPE == 0)
;;;611          if(j >= val) {
;;;612            fb[(y+i)*PHYS_XSZ + (x+j)] = Color[BG_COLOR];
;;;613          } else {
;;;614            fb[(y+i)*PHYS_XSZ + (x+j)] = Color[TXT_COLOR];
;;;615          }
;;;616         #else
;;;617          if(j >= val) {
;;;618            fb[(x+j)*PHYS_XSZ + (y+i)] = Color[BG_COLOR];
;;;619          } else {
;;;620            fb[(x+j)*PHYS_XSZ + (y+i)] = Color[TXT_COLOR];
0005a8  4835              LDR      r0,|L1.1664|
0005aa  2100              MOVS     r1,#0                 ;608
0005ac  6804              LDR      r4,[r0,#0]            ;618  ; fb
0005ae  1d00              ADDS     r0,r0,#4              ;618
0005b0  1e52              SUBS     r2,r2,#1              ;609
0005b2  8807              LDRH     r7,[r0,#0]            ;618
0005b4  f8b0c002          LDRH     r12,[r0,#2]
0005b8  e014              B        |L1.1508|
                  |L1.1466|
0005ba  2000              MOVS     r0,#0                 ;609
0005bc  eb0a0501          ADD      r5,r10,r1             ;618
0005c0  e00d              B        |L1.1502|
                  |L1.1474|
0005c2  eb090800          ADD      r8,r9,r0
0005c6  ebc81808          RSB      r8,r8,r8,LSL #4
0005ca  42b0              CMP      r0,r6                 ;617
0005cc  eb051808          ADD      r8,r5,r8,LSL #4
0005d0  d302              BCC      |L1.1496|
0005d2  f8247018          STRH     r7,[r4,r8,LSL #1]     ;618
0005d6  e001              B        |L1.1500|
                  |L1.1496|
0005d8  f824c018          STRH     r12,[r4,r8,LSL #1]
                  |L1.1500|
0005dc  1c40              ADDS     r0,r0,#1              ;609
                  |L1.1502|
0005de  4290              CMP      r0,r2                 ;609
0005e0  d9ef              BLS      |L1.1474|
0005e2  1c49              ADDS     r1,r1,#1              ;608
                  |L1.1508|
0005e4  4299              CMP      r1,r3                 ;608
0005e6  d3e8              BCC      |L1.1466|
;;;621          }
;;;622         #endif
;;;623        }
;;;624      }
;;;625    }
0005e8  e8bd87f0          POP      {r4-r10,pc}
;;;626    
                          ENDP

                  GLCD_Bitmap PROC
;;;639    
;;;640    void GLCD_Bitmap (unsigned int x, unsigned int y, unsigned int w, unsigned int h, unsigned char *bitmap) {
0005ec  e92d43f0          PUSH     {r4-r9,lr}
0005f0  4689              MOV      r9,r1
;;;641      int i, j, ofs;
;;;642      unsigned short *bitmap_ptr = (unsigned short *)bitmap;
;;;643    
;;;644      for (i = (h-1)*w, ofs = 0; i >= 0; i -= w, ofs++) {    
;;;645        for (j = 0; j < w; j++) {
;;;646         #if (LANDSCAPE == 0)
;;;647          fb[(x+ofs)*PHYS_XSZ + (y+j)] = bitmap_ptr[i+j];
;;;648         #else
;;;649          fb[(x+j)*PHYS_XSZ + (y+ofs)] = bitmap_ptr[i+j];
0005f2  4923              LDR      r1,|L1.1664|
0005f4  1e5b              SUBS     r3,r3,#1              ;644
0005f6  4353              MULS     r3,r2,r3              ;644
0005f8  2400              MOVS     r4,#0                 ;644
0005fa  9d07              LDR      r5,[sp,#0x1c]
0005fc  680f              LDR      r7,[r1,#0]            ;640  ; fb
0005fe  e014              B        |L1.1578|
                  |L1.1536|
000600  2100              MOVS     r1,#0                 ;645
000602  eb090604          ADD      r6,r9,r4
000606  e00c              B        |L1.1570|
                  |L1.1544|
000608  eb000801          ADD      r8,r0,r1
00060c  eb030c01          ADD      r12,r3,r1
000610  ebc81808          RSB      r8,r8,r8,LSL #4
000614  eb061808          ADD      r8,r6,r8,LSL #4
000618  f835c01c          LDRH     r12,[r5,r12,LSL #1]
00061c  f827c018          STRH     r12,[r7,r8,LSL #1]
000620  1c49              ADDS     r1,r1,#1              ;645
                  |L1.1570|
000622  4291              CMP      r1,r2                 ;645
000624  d3f0              BCC      |L1.1544|
000626  1a9b              SUBS     r3,r3,r2              ;644
000628  1c64              ADDS     r4,r4,#1              ;644
                  |L1.1578|
00062a  2b00              CMP      r3,#0                 ;644
00062c  dae8              BGE      |L1.1536|
;;;650         #endif
;;;651        }
;;;652      }
;;;653    }
00062e  e8bd83f0          POP      {r4-r9,pc}
;;;654    
                          ENDP

                  GLCD_ScrollVertical PROC
;;;662    
;;;663    void GLCD_ScrollVertical (unsigned int dy) {
000632  4770              BX       lr
;;;664    #if (LANDSCAPE == 0)
;;;665      uint32_t x, y;
;;;666      for (y = 0; y < (PHYS_YSZ - dy); y++) {
;;;667        for (x = 0; x < PHYS_XSZ; x++) {
;;;668          fb[y*PHYS_XSZ + x] = fb[(y+dy)*PHYS_XSZ + x];
;;;669        }
;;;670      }
;;;671      for (; y < PHYS_YSZ; y++) {
;;;672        for (x = 0; x < PHYS_XSZ; x++) {
;;;673          fb[y*PHYS_XSZ + x] = Color[BG_COLOR];
;;;674        }
;;;675      }
;;;676    #endif
;;;677    }
;;;678    
                          ENDP

                  GLCD_WrCmd PROC
;;;684    *******************************************************************************/
;;;685    void GLCD_WrCmd (unsigned char cmd) {
000634  f7ffbffe          B.W      wr_cmd
;;;686      wr_cmd (cmd);
;;;687    }
;;;688    
                          ENDP

                  GLCD_WrReg PROC
;;;695    *******************************************************************************/
;;;696    void GLCD_WrReg (unsigned char reg, unsigned short val) {
000638  e7fe              B        wr_reg
;;;697      wr_reg (reg, val);
;;;698    }
;;;699    /******************************************************************************/
                          ENDP

                  delay PROC
;;;106    
;;;107    static void delay (int cnt) {
00063a  0480              LSLS     r0,r0,#18
                  |L1.1596|
;;;108      cnt <<= DELAY_2N;
;;;109      while (cnt--);
00063c  1e40              SUBS     r0,r0,#1
00063e  d2fd              BCS      |L1.1596|
;;;110    }
000640  4770              BX       lr
;;;111    
                          ENDP

                  spi_tran PROC
;;;118    
;;;119    static __inline unsigned char spi_tran (unsigned char byte) {
000642  4910              LDR      r1,|L1.1668|
;;;120    
;;;121      LPC_SSP0->DR = byte;
000644  6088              STR      r0,[r1,#8]
                  |L1.1606|
;;;122      while (!(LPC_SSP0->SR & RNE));        /* Wait for send to finish            */
000646  68c8              LDR      r0,[r1,#0xc]
000648  0740              LSLS     r0,r0,#29
00064a  d5fc              BPL      |L1.1606|
;;;123      return (LPC_SSP0->DR);
00064c  6888              LDR      r0,[r1,#8]
00064e  b2c0              UXTB     r0,r0
;;;124    }
000650  4770              BX       lr
;;;125    
                          ENDP

                  wr_cmd PROC
;;;132    
;;;133    static __inline void wr_cmd (unsigned char cmd) {
000652  b570              PUSH     {r4-r6,lr}
;;;134      LCD_CS(0);
000654  4d0c              LDR      r5,|L1.1672|
000656  f44f3480          MOV      r4,#0x10000
00065a  4606              MOV      r6,r0                 ;133
00065c  602c              STR      r4,[r5,#0]
;;;135      spi_tran(SPI_START | SPI_WR | SPI_INDEX);   /* Write : RS = 0, RW = 0       */
00065e  2070              MOVS     r0,#0x70
000660  f7fffffe          BL       spi_tran
;;;136      spi_tran(0);
000664  2000              MOVS     r0,#0
000666  f7fffffe          BL       spi_tran
;;;137      spi_tran(cmd);
00066a  4630              MOV      r0,r6
00066c  f7fffffe          BL       spi_tran
;;;138      LCD_CS(1);
000670  f8454c80          STR      r4,[r5,#-0x80]
;;;139    }
000674  bd70              POP      {r4-r6,pc}
;;;140    
                          ENDP

000676  0000              DCW      0x0000
                  |L1.1656|
                          DCD      ||.constdata||+0x380
                  |L1.1660|
                          DCD      ||.constdata||
                  |L1.1664|
                          DCD      ||.data||
                  |L1.1668|
                          DCD      0x40083000
                  |L1.1672|
                          DCD      0x400f629c

                          AREA ||.constdata||, DATA, READONLY, ALIGN=1

                  Font_6x8_h
000000  00000000          DCB      0x00,0x00,0x00,0x00
000004  00000000          DCB      0x00,0x00,0x00,0x00
000008  04040404          DCB      0x04,0x04,0x04,0x04
00000c  04000400          DCB      0x04,0x00,0x04,0x00
000010  0a0a0a00          DCB      0x0a,0x0a,0x0a,0x00
000014  00000000          DCB      0x00,0x00,0x00,0x00
000018  0a0a1f0a          DCB      0x0a,0x0a,0x1f,0x0a
00001c  1f0a0a00          DCB      0x1f,0x0a,0x0a,0x00
000020  041e050e          DCB      0x04,0x1e,0x05,0x0e
000024  140f0400          DCB      0x14,0x0f,0x04,0x00
000028  03130804          DCB      0x03,0x13,0x08,0x04
00002c  02191800          DCB      0x02,0x19,0x18,0x00
000030  02050502          DCB      0x02,0x05,0x05,0x02
000034  15091600          DCB      0x15,0x09,0x16,0x00
000038  0c0c0402          DCB      0x0c,0x0c,0x04,0x02
00003c  00000000          DCB      0x00,0x00,0x00,0x00
000040  08040202          DCB      0x08,0x04,0x02,0x02
000044  02040800          DCB      0x02,0x04,0x08,0x00
000048  02040808          DCB      0x02,0x04,0x08,0x08
00004c  08040200          DCB      0x08,0x04,0x02,0x00
000050  0004150e          DCB      0x00,0x04,0x15,0x0e
000054  0e150400          DCB      0x0e,0x15,0x04,0x00
000058  0004041f          DCB      0x00,0x04,0x04,0x1f
00005c  04040000          DCB      0x04,0x04,0x00,0x00
000060  00000000          DCB      0x00,0x00,0x00,0x00
000064  0c0c0402          DCB      0x0c,0x0c,0x04,0x02
000068  0000001f          DCB      0x00,0x00,0x00,0x1f
00006c  00000000          DCB      0x00,0x00,0x00,0x00
000070  00000000          DCB      0x00,0x00,0x00,0x00
000074  000c0c00          DCB      0x00,0x0c,0x0c,0x00
000078  00100804          DCB      0x00,0x10,0x08,0x04
00007c  02010000          DCB      0x02,0x01,0x00,0x00
000080  0e111315          DCB      0x0e,0x11,0x13,0x15
000084  19110e00          DCB      0x19,0x11,0x0e,0x00
000088  04060404          DCB      0x04,0x06,0x04,0x04
00008c  04040e00          DCB      0x04,0x04,0x0e,0x00
000090  0e11100e          DCB      0x0e,0x11,0x10,0x0e
000094  01011f00          DCB      0x01,0x01,0x1f,0x00
000098  1f10080c          DCB      0x1f,0x10,0x08,0x0c
00009c  10110e00          DCB      0x10,0x11,0x0e,0x00
0000a0  080c0a09          DCB      0x08,0x0c,0x0a,0x09
0000a4  1f080800          DCB      0x1f,0x08,0x08,0x00
0000a8  1f010f10          DCB      0x1f,0x01,0x0f,0x10
0000ac  10110e00          DCB      0x10,0x11,0x0e,0x00
0000b0  1c02010f          DCB      0x1c,0x02,0x01,0x0f
0000b4  11110e00          DCB      0x11,0x11,0x0e,0x00
0000b8  1f101008          DCB      0x1f,0x10,0x10,0x08
0000bc  04020100          DCB      0x04,0x02,0x01,0x00
0000c0  0e11110e          DCB      0x0e,0x11,0x11,0x0e
0000c4  11110e00          DCB      0x11,0x11,0x0e,0x00
0000c8  0e11111e          DCB      0x0e,0x11,0x11,0x1e
0000cc  10080700          DCB      0x10,0x08,0x07,0x00
0000d0  00000400          DCB      0x00,0x00,0x04,0x00
0000d4  04000000          DCB      0x04,0x00,0x00,0x00
0000d8  00000400          DCB      0x00,0x00,0x04,0x00
0000dc  04040200          DCB      0x04,0x04,0x02,0x00
0000e0  10080402          DCB      0x10,0x08,0x04,0x02
0000e4  04081000          DCB      0x04,0x08,0x10,0x00
0000e8  00001f00          DCB      0x00,0x00,0x1f,0x00
0000ec  1f000000          DCB      0x1f,0x00,0x00,0x00
0000f0  02040810          DCB      0x02,0x04,0x08,0x10
0000f4  08040200          DCB      0x08,0x04,0x02,0x00
0000f8  0e11100c          DCB      0x0e,0x11,0x10,0x0c
0000fc  04000400          DCB      0x04,0x00,0x04,0x00
000100  0e11151d          DCB      0x0e,0x11,0x15,0x1d
000104  0d011e00          DCB      0x0d,0x01,0x1e,0x00
000108  040a1111          DCB      0x04,0x0a,0x11,0x11
00010c  1f111100          DCB      0x1f,0x11,0x11,0x00
000110  0f11110f          DCB      0x0f,0x11,0x11,0x0f
000114  11110f00          DCB      0x11,0x11,0x0f,0x00
000118  0e110101          DCB      0x0e,0x11,0x01,0x01
00011c  01110e00          DCB      0x01,0x11,0x0e,0x00
000120  0f111111          DCB      0x0f,0x11,0x11,0x11
000124  11110f00          DCB      0x11,0x11,0x0f,0x00
000128  1f01010f          DCB      0x1f,0x01,0x01,0x0f
00012c  01011f00          DCB      0x01,0x01,0x1f,0x00
000130  1f01010f          DCB      0x1f,0x01,0x01,0x0f
000134  01010100          DCB      0x01,0x01,0x01,0x00
000138  1e110101          DCB      0x1e,0x11,0x01,0x01
00013c  19111e00          DCB      0x19,0x11,0x1e,0x00
000140  1111111f          DCB      0x11,0x11,0x11,0x1f
000144  11111100          DCB      0x11,0x11,0x11,0x00
000148  0e040404          DCB      0x0e,0x04,0x04,0x04
00014c  04040e00          DCB      0x04,0x04,0x0e,0x00
000150  1c080808          DCB      0x1c,0x08,0x08,0x08
000154  08090600          DCB      0x08,0x09,0x06,0x00
000158  11090503          DCB      0x11,0x09,0x05,0x03
00015c  05091100          DCB      0x05,0x09,0x11,0x00
000160  01010101          DCB      0x01,0x01,0x01,0x01
000164  01011f00          DCB      0x01,0x01,0x1f,0x00
000168  111b1515          DCB      0x11,0x1b,0x15,0x15
00016c  15111100          DCB      0x15,0x11,0x11,0x00
000170  11111315          DCB      0x11,0x11,0x13,0x15
000174  19111100          DCB      0x19,0x11,0x11,0x00
000178  0e111111          DCB      0x0e,0x11,0x11,0x11
00017c  11110e00          DCB      0x11,0x11,0x0e,0x00
000180  0f11110f          DCB      0x0f,0x11,0x11,0x0f
000184  01010100          DCB      0x01,0x01,0x01,0x00
000188  0e111111          DCB      0x0e,0x11,0x11,0x11
00018c  15091600          DCB      0x15,0x09,0x16,0x00
000190  0f11110f          DCB      0x0f,0x11,0x11,0x0f
000194  05091100          DCB      0x05,0x09,0x11,0x00
000198  0e11010e          DCB      0x0e,0x11,0x01,0x0e
00019c  10110e00          DCB      0x10,0x11,0x0e,0x00
0001a0  1f150404          DCB      0x1f,0x15,0x04,0x04
0001a4  04040400          DCB      0x04,0x04,0x04,0x00
0001a8  11111111          DCB      0x11,0x11,0x11,0x11
0001ac  11110e00          DCB      0x11,0x11,0x0e,0x00
0001b0  11111111          DCB      0x11,0x11,0x11,0x11
0001b4  110a0400          DCB      0x11,0x0a,0x04,0x00
0001b8  11111115          DCB      0x11,0x11,0x11,0x15
0001bc  15150a00          DCB      0x15,0x15,0x0a,0x00
0001c0  11110a04          DCB      0x11,0x11,0x0a,0x04
0001c4  0a111100          DCB      0x0a,0x11,0x11,0x00
0001c8  11110a04          DCB      0x11,0x11,0x0a,0x04
0001cc  04040400          DCB      0x04,0x04,0x04,0x00
0001d0  1f10080e          DCB      0x1f,0x10,0x08,0x0e
0001d4  02011f00          DCB      0x02,0x01,0x1f,0x00
0001d8  1e020202          DCB      0x1e,0x02,0x02,0x02
0001dc  02021e00          DCB      0x02,0x02,0x1e,0x00
0001e0  00010204          DCB      0x00,0x01,0x02,0x04
0001e4  08100000          DCB      0x08,0x10,0x00,0x00
0001e8  1e101010          DCB      0x1e,0x10,0x10,0x10
0001ec  10101e00          DCB      0x10,0x10,0x1e,0x00
0001f0  040a1100          DCB      0x04,0x0a,0x11,0x00
0001f4  00000000          DCB      0x00,0x00,0x00,0x00
0001f8  00000000          DCB      0x00,0x00,0x00,0x00
0001fc  00001f00          DCB      0x00,0x00,0x1f,0x00
000200  06060408          DCB      0x06,0x06,0x04,0x08
000204  00000000          DCB      0x00,0x00,0x00,0x00
000208  00000608          DCB      0x00,0x00,0x06,0x08
00020c  0e091e00          DCB      0x0e,0x09,0x1e,0x00
000210  01010d13          DCB      0x01,0x01,0x0d,0x13
000214  11130d00          DCB      0x11,0x13,0x0d,0x00
000218  00000e11          DCB      0x00,0x00,0x0e,0x11
00021c  01110e00          DCB      0x01,0x11,0x0e,0x00
000220  10101619          DCB      0x10,0x10,0x16,0x19
000224  11191600          DCB      0x11,0x19,0x16,0x00
000228  00000e11          DCB      0x00,0x00,0x0e,0x11
00022c  1f010e00          DCB      0x1f,0x01,0x0e,0x00
000230  0814040e          DCB      0x08,0x14,0x04,0x0e
000234  04040400          DCB      0x04,0x04,0x04,0x00
000238  00000e19          DCB      0x00,0x00,0x0e,0x19
00023c  1916100e          DCB      0x19,0x16,0x10,0x0e
000240  01010d13          DCB      0x01,0x01,0x0d,0x13
000244  11111100          DCB      0x11,0x11,0x11,0x00
000248  04000604          DCB      0x04,0x00,0x06,0x04
00024c  04040e00          DCB      0x04,0x04,0x0e,0x00
000250  08000808          DCB      0x08,0x00,0x08,0x08
000254  08090600          DCB      0x08,0x09,0x06,0x00
000258  01010905          DCB      0x01,0x01,0x09,0x05
00025c  03050900          DCB      0x03,0x05,0x09,0x00
000260  06040404          DCB      0x06,0x04,0x04,0x04
000264  04040e00          DCB      0x04,0x04,0x0e,0x00
000268  00000b15          DCB      0x00,0x00,0x0b,0x15
00026c  15151500          DCB      0x15,0x15,0x15,0x00
000270  00000d13          DCB      0x00,0x00,0x0d,0x13
000274  11111100          DCB      0x11,0x11,0x11,0x00
000278  00000e11          DCB      0x00,0x00,0x0e,0x11
00027c  11110e00          DCB      0x11,0x11,0x0e,0x00
000280  00000d13          DCB      0x00,0x00,0x0d,0x13
000284  130d0101          DCB      0x13,0x0d,0x01,0x01
000288  00001619          DCB      0x00,0x00,0x16,0x19
00028c  19161010          DCB      0x19,0x16,0x10,0x10
000290  00000d13          DCB      0x00,0x00,0x0d,0x13
000294  01010100          DCB      0x01,0x01,0x01,0x00
000298  00001e01          DCB      0x00,0x00,0x1e,0x01
00029c  0e100f00          DCB      0x0e,0x10,0x0f,0x00
0002a0  04041f04          DCB      0x04,0x04,0x1f,0x04
0002a4  04140800          DCB      0x04,0x14,0x08,0x00
0002a8  00001111          DCB      0x00,0x00,0x11,0x11
0002ac  11191600          DCB      0x11,0x19,0x16,0x00
0002b0  00001111          DCB      0x00,0x00,0x11,0x11
0002b4  110a0400          DCB      0x11,0x0a,0x04,0x00
0002b8  00001111          DCB      0x00,0x00,0x11,0x11
0002bc  15150a00          DCB      0x15,0x15,0x0a,0x00
0002c0  0000110a          DCB      0x00,0x00,0x11,0x0a
0002c4  040a1100          DCB      0x04,0x0a,0x11,0x00
0002c8  00001111          DCB      0x00,0x00,0x11,0x11
0002cc  1e10110e          DCB      0x1e,0x10,0x11,0x0e
0002d0  00001f08          DCB      0x00,0x00,0x1f,0x08
0002d4  04021f00          DCB      0x04,0x02,0x1f,0x00
0002d8  08040402          DCB      0x08,0x04,0x04,0x02
0002dc  04040800          DCB      0x04,0x04,0x08,0x00
0002e0  04040400          DCB      0x04,0x04,0x04,0x00
0002e4  04040400          DCB      0x04,0x04,0x04,0x00
0002e8  02040408          DCB      0x02,0x04,0x04,0x08
0002ec  04040200          DCB      0x04,0x04,0x02,0x00
0002f0  02150800          DCB      0x02,0x15,0x08,0x00
0002f4  00000000          DCB      0x00,0x00,0x00,0x00
0002f8  00000000          DCB      0x00,0x00,0x00,0x00
0002fc  00000000          DCB      0x00,0x00,0x00,0x00
000300  00000c12          DCB      0x00,0x00,0x0c,0x12
000304  120c0000          DCB      0x12,0x0c,0x00,0x00
000308  00000c1e          DCB      0x00,0x00,0x0c,0x1e
00030c  1e0c0000          DCB      0x1e,0x0c,0x00,0x00
000310  00001e12          DCB      0x00,0x00,0x1e,0x12
000314  121e0000          DCB      0x12,0x1e,0x00,0x00
000318  00001e1e          DCB      0x00,0x00,0x1e,0x1e
00031c  1e1e0000          DCB      0x1e,0x1e,0x00,0x00
000320  00000c0c          DCB      0x00,0x00,0x0c,0x0c
000324  121e0000          DCB      0x12,0x1e,0x00,0x00
000328  00000c0c          DCB      0x00,0x00,0x0c,0x0c
00032c  1e1e0000          DCB      0x1e,0x1e,0x00,0x00
000330  00001e12          DCB      0x00,0x00,0x1e,0x12
000334  0c0c0000          DCB      0x0c,0x0c,0x00,0x00
000338  00001e1e          DCB      0x00,0x00,0x1e,0x1e
00033c  0c0c0000          DCB      0x0c,0x0c,0x00,0x00
000340  00001816          DCB      0x00,0x00,0x18,0x16
000344  16180000          DCB      0x16,0x18,0x00,0x00
000348  0000181e          DCB      0x00,0x00,0x18,0x1e
00034c  1e180000          DCB      0x1e,0x18,0x00,0x00
000350  0000061a          DCB      0x00,0x00,0x06,0x1a
000354  1a060000          DCB      0x1a,0x06,0x00,0x00
000358  0000061e          DCB      0x00,0x00,0x06,0x1e
00035c  1e060000          DCB      0x1e,0x06,0x00,0x00
000360  00000c12          DCB      0x00,0x00,0x0c,0x12
000364  120c0000          DCB      0x12,0x0c,0x00,0x00
000368  00000c1e          DCB      0x00,0x00,0x0c,0x1e
00036c  1e0c0000          DCB      0x1e,0x0c,0x00,0x00
000370  00001e12          DCB      0x00,0x00,0x1e,0x12
000374  121e0000          DCB      0x12,0x1e,0x00,0x00
000378  00001e1e          DCB      0x00,0x00,0x1e,0x1e
00037c  1e1e0000          DCB      0x1e,0x1e,0x00,0x00
                  Font_16x24_h
000380  00000000          DCW      0x0000,0x0000
000384  00000000          DCW      0x0000,0x0000
000388  00000000          DCW      0x0000,0x0000
00038c  00000000          DCW      0x0000,0x0000
000390  00000000          DCW      0x0000,0x0000
000394  00000000          DCW      0x0000,0x0000
000398  00000000          DCW      0x0000,0x0000
00039c  00000000          DCW      0x0000,0x0000
0003a0  00000000          DCW      0x0000,0x0000
0003a4  00000000          DCW      0x0000,0x0000
0003a8  00000000          DCW      0x0000,0x0000
0003ac  00000000          DCW      0x0000,0x0000
0003b0  00000180          DCW      0x0000,0x0180
0003b4  01800180          DCW      0x0180,0x0180
0003b8  01800180          DCW      0x0180,0x0180
0003bc  01800180          DCW      0x0180,0x0180
0003c0  01800180          DCW      0x0180,0x0180
0003c4  01800180          DCW      0x0180,0x0180
0003c8  01800180          DCW      0x0180,0x0180
0003cc  00000000          DCW      0x0000,0x0000
0003d0  01800180          DCW      0x0180,0x0180
0003d4  00000000          DCW      0x0000,0x0000
0003d8  00000000          DCW      0x0000,0x0000
0003dc  00000000          DCW      0x0000,0x0000
0003e0  00000000          DCW      0x0000,0x0000
0003e4  00cc00cc          DCW      0x00cc,0x00cc
0003e8  00cc00cc          DCW      0x00cc,0x00cc
0003ec  00cc00cc          DCW      0x00cc,0x00cc
0003f0  00000000          DCW      0x0000,0x0000
0003f4  00000000          DCW      0x0000,0x0000
0003f8  00000000          DCW      0x0000,0x0000
0003fc  00000000          DCW      0x0000,0x0000
000400  00000000          DCW      0x0000,0x0000
000404  00000000          DCW      0x0000,0x0000
000408  00000000          DCW      0x0000,0x0000
00040c  00000000          DCW      0x0000,0x0000
000410  00000000          DCW      0x0000,0x0000
000414  00000000          DCW      0x0000,0x0000
000418  00000000          DCW      0x0000,0x0000
00041c  0c600c60          DCW      0x0c60,0x0c60
000420  0c600630          DCW      0x0c60,0x0630
000424  06301ffe          DCW      0x0630,0x1ffe
000428  1ffe0630          DCW      0x1ffe,0x0630
00042c  07380318          DCW      0x0738,0x0318
000430  1ffe1ffe          DCW      0x1ffe,0x1ffe
000434  03180318          DCW      0x0318,0x0318
000438  018c018c          DCW      0x018c,0x018c
00043c  018c0000          DCW      0x018c,0x0000
000440  00000080          DCW      0x0000,0x0080
000444  03e00ff8          DCW      0x03e0,0x0ff8
000448  0e9c1c8c          DCW      0x0e9c,0x1c8c
00044c  188c008c          DCW      0x188c,0x008c
000450  009801f8          DCW      0x0098,0x01f8
000454  07e00e80          DCW      0x07e0,0x0e80
000458  1c80188c          DCW      0x1c80,0x188c
00045c  188c189c          DCW      0x188c,0x189c
000460  0cb80ff0          DCW      0x0cb8,0x0ff0
000464  03e00080          DCW      0x03e0,0x0080
000468  00800000          DCW      0x0080,0x0000
00046c  00000000          DCW      0x0000,0x0000
000470  00000000          DCW      0x0000,0x0000
000474  0000180e          DCW      0x0000,0x180e
000478  0c1b0c11          DCW      0x0c1b,0x0c11
00047c  06110611          DCW      0x0611,0x0611
000480  03110311          DCW      0x0311,0x0311
000484  019b018e          DCW      0x019b,0x018e
000488  38c06cc0          DCW      0x38c0,0x6cc0
00048c  44604460          DCW      0x4460,0x4460
000490  44304430          DCW      0x4430,0x4430
000494  44186c18          DCW      0x4418,0x6c18
000498  380c0000          DCW      0x380c,0x0000
00049c  00000000          DCW      0x0000,0x0000
0004a0  000001e0          DCW      0x0000,0x01e0
0004a4  03f00738          DCW      0x03f0,0x0738
0004a8  06180618          DCW      0x0618,0x0618
0004ac  033001f0          DCW      0x0330,0x01f0
0004b0  00f000f8          DCW      0x00f0,0x00f8
0004b4  319c330e          DCW      0x319c,0x330e
0004b8  1e061c06          DCW      0x1e06,0x1c06
0004bc  1c063f06          DCW      0x1c06,0x3f06
0004c0  73fc21f0          DCW      0x73fc,0x21f0
0004c4  00000000          DCW      0x0000,0x0000
0004c8  00000000          DCW      0x0000,0x0000
0004cc  00000000          DCW      0x0000,0x0000
0004d0  00000000          DCW      0x0000,0x0000
0004d4  000c000c          DCW      0x000c,0x000c
0004d8  000c000c          DCW      0x000c,0x000c
0004dc  000c000c          DCW      0x000c,0x000c
0004e0  00000000          DCW      0x0000,0x0000
0004e4  00000000          DCW      0x0000,0x0000
0004e8  00000000          DCW      0x0000,0x0000
0004ec  00000000          DCW      0x0000,0x0000
0004f0  00000000          DCW      0x0000,0x0000
0004f4  00000000          DCW      0x0000,0x0000
0004f8  00000000          DCW      0x0000,0x0000
0004fc  00000000          DCW      0x0000,0x0000
000500  00000200          DCW      0x0000,0x0200
000504  03000180          DCW      0x0300,0x0180
000508  00c000c0          DCW      0x00c0,0x00c0
00050c  00600060          DCW      0x0060,0x0060
000510  00300030          DCW      0x0030,0x0030
000514  00300030          DCW      0x0030,0x0030
000518  00300030          DCW      0x0030,0x0030
00051c  00300030          DCW      0x0030,0x0030
000520  00600060          DCW      0x0060,0x0060
000524  00c000c0          DCW      0x00c0,0x00c0
000528  01800300          DCW      0x0180,0x0300
00052c  02000000          DCW      0x0200,0x0000
000530  00000020          DCW      0x0000,0x0020
000534  006000c0          DCW      0x0060,0x00c0
000538  01800180          DCW      0x0180,0x0180
00053c  03000300          DCW      0x0300,0x0300
000540  06000600          DCW      0x0600,0x0600
000544  06000600          DCW      0x0600,0x0600
000548  06000600          DCW      0x0600,0x0600
00054c  06000600          DCW      0x0600,0x0600
000550  03000300          DCW      0x0300,0x0300
000554  01800180          DCW      0x0180,0x0180
000558  00c00060          DCW      0x00c0,0x0060
00055c  00200000          DCW      0x0020,0x0000
000560  00000000          DCW      0x0000,0x0000
000564  00000000          DCW      0x0000,0x0000
000568  00000000          DCW      0x0000,0x0000
00056c  00c000c0          DCW      0x00c0,0x00c0
000570  06d807f8          DCW      0x06d8,0x07f8
000574  01e00330          DCW      0x01e0,0x0330
000578  07380000          DCW      0x0738,0x0000
00057c  00000000          DCW      0x0000,0x0000
000580  00000000          DCW      0x0000,0x0000
000584  00000000          DCW      0x0000,0x0000
000588  00000000          DCW      0x0000,0x0000
00058c  00000000          DCW      0x0000,0x0000
000590  00000000          DCW      0x0000,0x0000
000594  00000000          DCW      0x0000,0x0000
000598  00000000          DCW      0x0000,0x0000
00059c  01800180          DCW      0x0180,0x0180
0005a0  01800180          DCW      0x0180,0x0180
0005a4  01803ffc          DCW      0x0180,0x3ffc
0005a8  3ffc0180          DCW      0x3ffc,0x0180
0005ac  01800180          DCW      0x0180,0x0180
0005b0  01800180          DCW      0x0180,0x0180
0005b4  00000000          DCW      0x0000,0x0000
0005b8  00000000          DCW      0x0000,0x0000
0005bc  00000000          DCW      0x0000,0x0000
0005c0  00000000          DCW      0x0000,0x0000
0005c4  00000000          DCW      0x0000,0x0000
0005c8  00000000          DCW      0x0000,0x0000
0005cc  00000000          DCW      0x0000,0x0000
0005d0  00000000          DCW      0x0000,0x0000
0005d4  00000000          DCW      0x0000,0x0000
0005d8  00000000          DCW      0x0000,0x0000
0005dc  00000000          DCW      0x0000,0x0000
0005e0  00000180          DCW      0x0000,0x0180
0005e4  01800100          DCW      0x0180,0x0100
0005e8  01000080          DCW      0x0100,0x0080
0005ec  00000000          DCW      0x0000,0x0000
0005f0  00000000          DCW      0x0000,0x0000
0005f4  00000000          DCW      0x0000,0x0000
0005f8  00000000          DCW      0x0000,0x0000
0005fc  00000000          DCW      0x0000,0x0000
000600  00000000          DCW      0x0000,0x0000
000604  00000000          DCW      0x0000,0x0000
000608  07e007e0          DCW      0x07e0,0x07e0
00060c  00000000          DCW      0x0000,0x0000
000610  00000000          DCW      0x0000,0x0000
000614  00000000          DCW      0x0000,0x0000
000618  00000000          DCW      0x0000,0x0000
00061c  00000000          DCW      0x0000,0x0000
000620  00000000          DCW      0x0000,0x0000
000624  00000000          DCW      0x0000,0x0000
000628  00000000          DCW      0x0000,0x0000
00062c  00000000          DCW      0x0000,0x0000
000630  00000000          DCW      0x0000,0x0000
000634  00000000          DCW      0x0000,0x0000
000638  00000000          DCW      0x0000,0x0000
00063c  00000000          DCW      0x0000,0x0000
000640  000000c0          DCW      0x0000,0x00c0
000644  00c00000          DCW      0x00c0,0x0000
000648  00000000          DCW      0x0000,0x0000
00064c  00000000          DCW      0x0000,0x0000
000650  00000c00          DCW      0x0000,0x0c00
000654  0c000600          DCW      0x0c00,0x0600
000658  06000600          DCW      0x0600,0x0600
00065c  03000300          DCW      0x0300,0x0300
000660  03000380          DCW      0x0300,0x0380
000664  01800180          DCW      0x0180,0x0180
000668  018000c0          DCW      0x0180,0x00c0
00066c  00c000c0          DCW      0x00c0,0x00c0
000670  00600060          DCW      0x0060,0x0060
000674  00000000          DCW      0x0000,0x0000
000678  00000000          DCW      0x0000,0x0000
00067c  00000000          DCW      0x0000,0x0000
000680  000003e0          DCW      0x0000,0x03e0
000684  07f00e38          DCW      0x07f0,0x0e38
000688  0c18180c          DCW      0x0c18,0x180c
00068c  180c180c          DCW      0x180c,0x180c
000690  180c180c          DCW      0x180c,0x180c
000694  180c180c          DCW      0x180c,0x180c
000698  180c180c          DCW      0x180c,0x180c
00069c  0c180e38          DCW      0x0c18,0x0e38
0006a0  07f003e0          DCW      0x07f0,0x03e0
0006a4  00000000          DCW      0x0000,0x0000
0006a8  00000000          DCW      0x0000,0x0000
0006ac  00000000          DCW      0x0000,0x0000
0006b0  00000100          DCW      0x0000,0x0100
0006b4  018001c0          DCW      0x0180,0x01c0
0006b8  01f00198          DCW      0x01f0,0x0198
0006bc  01880180          DCW      0x0188,0x0180
0006c0  01800180          DCW      0x0180,0x0180
0006c4  01800180          DCW      0x0180,0x0180
0006c8  01800180          DCW      0x0180,0x0180
0006cc  01800180          DCW      0x0180,0x0180
0006d0  01800180          DCW      0x0180,0x0180
0006d4  00000000          DCW      0x0000,0x0000
0006d8  00000000          DCW      0x0000,0x0000
0006dc  00000000          DCW      0x0000,0x0000
0006e0  000003e0          DCW      0x0000,0x03e0
0006e4  0ff80c18          DCW      0x0ff8,0x0c18
0006e8  180c180c          DCW      0x180c,0x180c
0006ec  18001800          DCW      0x1800,0x1800
0006f0  0c000600          DCW      0x0c00,0x0600
0006f4  03000180          DCW      0x0300,0x0180
0006f8  00c00060          DCW      0x00c0,0x0060
0006fc  00300018          DCW      0x0030,0x0018
000700  1ffc1ffc          DCW      0x1ffc,0x1ffc
000704  00000000          DCW      0x0000,0x0000
000708  00000000          DCW      0x0000,0x0000
00070c  00000000          DCW      0x0000,0x0000
000710  000001e0          DCW      0x0000,0x01e0
000714  07f80e18          DCW      0x07f8,0x0e18
000718  0c0c0c0c          DCW      0x0c0c,0x0c0c
00071c  0c000600          DCW      0x0c00,0x0600
000720  03c007c0          DCW      0x03c0,0x07c0
000724  0c001800          DCW      0x0c00,0x1800
000728  1800180c          DCW      0x1800,0x180c
00072c  180c0c18          DCW      0x180c,0x0c18
000730  07f803e0          DCW      0x07f8,0x03e0
000734  00000000          DCW      0x0000,0x0000
000738  00000000          DCW      0x0000,0x0000
00073c  00000000          DCW      0x0000,0x0000
000740  00000c00          DCW      0x0000,0x0c00
000744  0e000f00          DCW      0x0e00,0x0f00
000748  0f000d80          DCW      0x0f00,0x0d80
00074c  0cc00c60          DCW      0x0cc0,0x0c60
000750  0c600c30          DCW      0x0c60,0x0c30
000754  0c180c0c          DCW      0x0c18,0x0c0c
000758  3ffc3ffc          DCW      0x3ffc,0x3ffc
00075c  0c000c00          DCW      0x0c00,0x0c00
000760  0c000c00          DCW      0x0c00,0x0c00
000764  00000000          DCW      0x0000,0x0000
000768  00000000          DCW      0x0000,0x0000
00076c  00000000          DCW      0x0000,0x0000
000770  00000ff8          DCW      0x0000,0x0ff8
000774  0ff80018          DCW      0x0ff8,0x0018
000778  0018000c          DCW      0x0018,0x000c
00077c  03ec07fc          DCW      0x03ec,0x07fc
000780  0e1c1c00          DCW      0x0e1c,0x1c00
000784  18001800          DCW      0x1800,0x1800
000788  1800180c          DCW      0x1800,0x180c
00078c  0c1c0e18          DCW      0x0c1c,0x0e18
000790  07f803e0          DCW      0x07f8,0x03e0
000794  00000000          DCW      0x0000,0x0000
000798  00000000          DCW      0x0000,0x0000
00079c  00000000          DCW      0x0000,0x0000
0007a0  000007c0          DCW      0x0000,0x07c0
0007a4  0ff01c38          DCW      0x0ff0,0x1c38
0007a8  18180018          DCW      0x1818,0x0018
0007ac  000c03cc          DCW      0x000c,0x03cc
0007b0  0fec0e3c          DCW      0x0fec,0x0e3c
0007b4  1c1c180c          DCW      0x1c1c,0x180c
0007b8  180c180c          DCW      0x180c,0x180c
0007bc  1c180e38          DCW      0x1c18,0x0e38
0007c0  07f003e0          DCW      0x07f0,0x03e0
0007c4  00000000          DCW      0x0000,0x0000
0007c8  00000000          DCW      0x0000,0x0000
0007cc  00000000          DCW      0x0000,0x0000
0007d0  00001ffc          DCW      0x0000,0x1ffc
0007d4  1ffc0c00          DCW      0x1ffc,0x0c00
0007d8  06000600          DCW      0x0600,0x0600
0007dc  03000380          DCW      0x0300,0x0380
0007e0  018001c0          DCW      0x0180,0x01c0
0007e4  00c000e0          DCW      0x00c0,0x00e0
0007e8  00600060          DCW      0x0060,0x0060
0007ec  00700030          DCW      0x0070,0x0030
0007f0  00300030          DCW      0x0030,0x0030
0007f4  00000000          DCW      0x0000,0x0000
0007f8  00000000          DCW      0x0000,0x0000
0007fc  00000000          DCW      0x0000,0x0000
000800  000003e0          DCW      0x0000,0x03e0
000804  07f00e38          DCW      0x07f0,0x0e38
000808  0c180c18          DCW      0x0c18,0x0c18
00080c  0c180638          DCW      0x0c18,0x0638
000810  07f007f0          DCW      0x07f0,0x07f0
000814  0c18180c          DCW      0x0c18,0x180c
000818  180c180c          DCW      0x180c,0x180c
00081c  180c0c38          DCW      0x180c,0x0c38
000820  0ff803e0          DCW      0x0ff8,0x03e0
000824  00000000          DCW      0x0000,0x0000
000828  00000000          DCW      0x0000,0x0000
00082c  00000000          DCW      0x0000,0x0000
000830  000003e0          DCW      0x0000,0x03e0
000834  07f00e38          DCW      0x07f0,0x0e38
000838  0c1c180c          DCW      0x0c1c,0x180c
00083c  180c180c          DCW      0x180c,0x180c
000840  1c1c1e38          DCW      0x1c1c,0x1e38
000844  1bf819e0          DCW      0x1bf8,0x19e0
000848  18000c00          DCW      0x1800,0x0c00
00084c  0c000e1c          DCW      0x0c00,0x0e1c
000850  07f801f0          DCW      0x07f8,0x01f0
000854  00000000          DCW      0x0000,0x0000
000858  00000000          DCW      0x0000,0x0000
00085c  00000000          DCW      0x0000,0x0000
000860  00000000          DCW      0x0000,0x0000
000864  00000000          DCW      0x0000,0x0000
000868  00000000          DCW      0x0000,0x0000
00086c  01800180          DCW      0x0180,0x0180
000870  00000000          DCW      0x0000,0x0000
000874  00000000          DCW      0x0000,0x0000
000878  00000000          DCW      0x0000,0x0000
00087c  00000000          DCW      0x0000,0x0000
000880  01800180          DCW      0x0180,0x0180
000884  00000000          DCW      0x0000,0x0000
000888  00000000          DCW      0x0000,0x0000
00088c  00000000          DCW      0x0000,0x0000
000890  00000000          DCW      0x0000,0x0000
000894  00000000          DCW      0x0000,0x0000
000898  00000000          DCW      0x0000,0x0000
00089c  01800180          DCW      0x0180,0x0180
0008a0  00000000          DCW      0x0000,0x0000
0008a4  00000000          DCW      0x0000,0x0000
0008a8  00000000          DCW      0x0000,0x0000
0008ac  00000000          DCW      0x0000,0x0000
0008b0  01800180          DCW      0x0180,0x0180
0008b4  01000100          DCW      0x0100,0x0100
0008b8  00800000          DCW      0x0080,0x0000
0008bc  00000000          DCW      0x0000,0x0000
0008c0  00000000          DCW      0x0000,0x0000
0008c4  00000000          DCW      0x0000,0x0000
0008c8  00000000          DCW      0x0000,0x0000
0008cc  00000000          DCW      0x0000,0x0000
0008d0  10001c00          DCW      0x1000,0x1c00
0008d4  0f8003e0          DCW      0x0f80,0x03e0
0008d8  00f80018          DCW      0x00f8,0x0018
0008dc  00f803e0          DCW      0x00f8,0x03e0
0008e0  0f801c00          DCW      0x0f80,0x1c00
0008e4  10000000          DCW      0x1000,0x0000
0008e8  00000000          DCW      0x0000,0x0000
0008ec  00000000          DCW      0x0000,0x0000
0008f0  00000000          DCW      0x0000,0x0000
0008f4  00000000          DCW      0x0000,0x0000
0008f8  00000000          DCW      0x0000,0x0000
0008fc  00000000          DCW      0x0000,0x0000
000900  1ff80000          DCW      0x1ff8,0x0000
000904  00000000          DCW      0x0000,0x0000
000908  1ff80000          DCW      0x1ff8,0x0000
00090c  00000000          DCW      0x0000,0x0000
000910  00000000          DCW      0x0000,0x0000
000914  00000000          DCW      0x0000,0x0000
000918  00000000          DCW      0x0000,0x0000
00091c  00000000          DCW      0x0000,0x0000
000920  00000000          DCW      0x0000,0x0000
000924  00000000          DCW      0x0000,0x0000
000928  00000000          DCW      0x0000,0x0000
00092c  00000000          DCW      0x0000,0x0000
000930  00080038          DCW      0x0008,0x0038
000934  01f007c0          DCW      0x01f0,0x07c0
000938  1f001800          DCW      0x1f00,0x1800
00093c  1f0007c0          DCW      0x1f00,0x07c0
000940  01f00038          DCW      0x01f0,0x0038
000944  00080000          DCW      0x0008,0x0000
000948  00000000          DCW      0x0000,0x0000
00094c  00000000          DCW      0x0000,0x0000
000950  000003e0          DCW      0x0000,0x03e0
000954  0ff80c18          DCW      0x0ff8,0x0c18
000958  180c180c          DCW      0x180c,0x180c
00095c  18000c00          DCW      0x1800,0x0c00
000960  06000300          DCW      0x0600,0x0300
000964  018000c0          DCW      0x0180,0x00c0
000968  00c000c0          DCW      0x00c0,0x00c0
00096c  00000000          DCW      0x0000,0x0000
000970  00c000c0          DCW      0x00c0,0x00c0
000974  00000000          DCW      0x0000,0x0000
000978  00000000          DCW      0x0000,0x0000
00097c  00000000          DCW      0x0000,0x0000
000980  00000000          DCW      0x0000,0x0000
000984  07e01818          DCW      0x07e0,0x1818
000988  200429c2          DCW      0x2004,0x29c2
00098c  4a224411          DCW      0x4a22,0x4411
000990  44094409          DCW      0x4409,0x4409
000994  44092209          DCW      0x4409,0x2209
000998  13110ce2          DCW      0x1311,0x0ce2
00099c  40022004          DCW      0x4002,0x2004
0009a0  181807e0          DCW      0x1818,0x07e0
0009a4  00000000          DCW      0x0000,0x0000
0009a8  00000000          DCW      0x0000,0x0000
0009ac  00000000          DCW      0x0000,0x0000
0009b0  00000380          DCW      0x0000,0x0380
0009b4  038006c0          DCW      0x0380,0x06c0
0009b8  06c006c0          DCW      0x06c0,0x06c0
0009bc  0c600c60          DCW      0x0c60,0x0c60
0009c0  18301830          DCW      0x1830,0x1830
0009c4  18303ff8          DCW      0x1830,0x3ff8
0009c8  3ff8701c          DCW      0x3ff8,0x701c
0009cc  600c600c          DCW      0x600c,0x600c
0009d0  c006c006          DCW      0xc006,0xc006
0009d4  00000000          DCW      0x0000,0x0000
0009d8  00000000          DCW      0x0000,0x0000
0009dc  00000000          DCW      0x0000,0x0000
0009e0  000003fc          DCW      0x0000,0x03fc
0009e4  0ffc0c0c          DCW      0x0ffc,0x0c0c
0009e8  180c180c          DCW      0x180c,0x180c
0009ec  180c0c0c          DCW      0x180c,0x0c0c
0009f0  07fc0ffc          DCW      0x07fc,0x0ffc
0009f4  180c300c          DCW      0x180c,0x300c
0009f8  300c300c          DCW      0x300c,0x300c
0009fc  300c180c          DCW      0x300c,0x180c
000a00  1ffc07fc          DCW      0x1ffc,0x07fc
000a04  00000000          DCW      0x0000,0x0000
000a08  00000000          DCW      0x0000,0x0000
000a0c  00000000          DCW      0x0000,0x0000
000a10  000007c0          DCW      0x0000,0x07c0
000a14  1ff03838          DCW      0x1ff0,0x3838
000a18  301c700c          DCW      0x301c,0x700c
000a1c  60060006          DCW      0x6006,0x0006
000a20  00060006          DCW      0x0006,0x0006
000a24  00060006          DCW      0x0006,0x0006
000a28  00066006          DCW      0x0006,0x6006
000a2c  700c301c          DCW      0x700c,0x301c
000a30  1ff007e0          DCW      0x1ff0,0x07e0
000a34  00000000          DCW      0x0000,0x0000
000a38  00000000          DCW      0x0000,0x0000
000a3c  00000000          DCW      0x0000,0x0000
000a40  000003fe          DCW      0x0000,0x03fe
000a44  0ffe0e06          DCW      0x0ffe,0x0e06
000a48  18061806          DCW      0x1806,0x1806
000a4c  30063006          DCW      0x3006,0x3006
000a50  30063006          DCW      0x3006,0x3006
000a54  30063006          DCW      0x3006,0x3006
000a58  30061806          DCW      0x3006,0x1806
000a5c  18060e06          DCW      0x1806,0x0e06
000a60  0ffe03fe          DCW      0x0ffe,0x03fe
000a64  00000000          DCW      0x0000,0x0000
000a68  00000000          DCW      0x0000,0x0000
000a6c  00000000          DCW      0x0000,0x0000
000a70  00003ffc          DCW      0x0000,0x3ffc
000a74  3ffc000c          DCW      0x3ffc,0x000c
000a78  000c000c          DCW      0x000c,0x000c
000a7c  000c000c          DCW      0x000c,0x000c
000a80  1ffc1ffc          DCW      0x1ffc,0x1ffc
000a84  000c000c          DCW      0x000c,0x000c
000a88  000c000c          DCW      0x000c,0x000c
000a8c  000c000c          DCW      0x000c,0x000c
000a90  3ffc3ffc          DCW      0x3ffc,0x3ffc
000a94  00000000          DCW      0x0000,0x0000
000a98  00000000          DCW      0x0000,0x0000
000a9c  00000000          DCW      0x0000,0x0000
000aa0  00003ff8          DCW      0x0000,0x3ff8
000aa4  3ff80018          DCW      0x3ff8,0x0018
000aa8  00180018          DCW      0x0018,0x0018
000aac  00180018          DCW      0x0018,0x0018
000ab0  1ff81ff8          DCW      0x1ff8,0x1ff8
000ab4  00180018          DCW      0x0018,0x0018
000ab8  00180018          DCW      0x0018,0x0018
000abc  00180018          DCW      0x0018,0x0018
000ac0  00180018          DCW      0x0018,0x0018
000ac4  00000000          DCW      0x0000,0x0000
000ac8  00000000          DCW      0x0000,0x0000
000acc  00000000          DCW      0x0000,0x0000
000ad0  00000fe0          DCW      0x0000,0x0fe0
000ad4  3ff8783c          DCW      0x3ff8,0x783c
000ad8  600ee006          DCW      0x600e,0xe006
000adc  c0070003          DCW      0xc007,0x0003
000ae0  0003fe03          DCW      0x0003,0xfe03
000ae4  fe03c003          DCW      0xfe03,0xc003
000ae8  c007c006          DCW      0xc007,0xc006
000aec  c00ef03c          DCW      0xc00e,0xf03c
000af0  3ff80fe0          DCW      0x3ff8,0x0fe0
000af4  00000000          DCW      0x0000,0x0000
000af8  00000000          DCW      0x0000,0x0000
000afc  00000000          DCW      0x0000,0x0000
000b00  0000300c          DCW      0x0000,0x300c
000b04  300c300c          DCW      0x300c,0x300c
000b08  300c300c          DCW      0x300c,0x300c
000b0c  300c300c          DCW      0x300c,0x300c
000b10  3ffc3ffc          DCW      0x3ffc,0x3ffc
000b14  300c300c          DCW      0x300c,0x300c
000b18  300c300c          DCW      0x300c,0x300c
000b1c  300c300c          DCW      0x300c,0x300c
000b20  300c300c          DCW      0x300c,0x300c
000b24  00000000          DCW      0x0000,0x0000
000b28  00000000          DCW      0x0000,0x0000
000b2c  00000000          DCW      0x0000,0x0000
000b30  00000180          DCW      0x0000,0x0180
000b34  01800180          DCW      0x0180,0x0180
000b38  01800180          DCW      0x0180,0x0180
000b3c  01800180          DCW      0x0180,0x0180
000b40  01800180          DCW      0x0180,0x0180
000b44  01800180          DCW      0x0180,0x0180
000b48  01800180          DCW      0x0180,0x0180
000b4c  01800180          DCW      0x0180,0x0180
000b50  01800180          DCW      0x0180,0x0180
000b54  00000000          DCW      0x0000,0x0000
000b58  00000000          DCW      0x0000,0x0000
000b5c  00000000          DCW      0x0000,0x0000
000b60  00000600          DCW      0x0000,0x0600
000b64  06000600          DCW      0x0600,0x0600
000b68  06000600          DCW      0x0600,0x0600
000b6c  06000600          DCW      0x0600,0x0600
000b70  06000600          DCW      0x0600,0x0600
000b74  06000600          DCW      0x0600,0x0600
000b78  06000618          DCW      0x0600,0x0618
000b7c  06180738          DCW      0x0618,0x0738
000b80  03f001e0          DCW      0x03f0,0x01e0
000b84  00000000          DCW      0x0000,0x0000
000b88  00000000          DCW      0x0000,0x0000
000b8c  00000000          DCW      0x0000,0x0000
000b90  00003006          DCW      0x0000,0x3006
000b94  18060c06          DCW      0x1806,0x0c06
000b98  06060306          DCW      0x0606,0x0306
000b9c  018600c6          DCW      0x0186,0x00c6
000ba0  00660076          DCW      0x0066,0x0076
000ba4  00de018e          DCW      0x00de,0x018e
000ba8  03060606          DCW      0x0306,0x0606
000bac  0c061806          DCW      0x0c06,0x1806
000bb0  30066006          DCW      0x3006,0x6006
000bb4  00000000          DCW      0x0000,0x0000
000bb8  00000000          DCW      0x0000,0x0000
000bbc  00000000          DCW      0x0000,0x0000
000bc0  00000018          DCW      0x0000,0x0018
000bc4  00180018          DCW      0x0018,0x0018
000bc8  00180018          DCW      0x0018,0x0018
000bcc  00180018          DCW      0x0018,0x0018
000bd0  00180018          DCW      0x0018,0x0018
000bd4  00180018          DCW      0x0018,0x0018
000bd8  00180018          DCW      0x0018,0x0018
000bdc  00180018          DCW      0x0018,0x0018
000be0  1ff81ff8          DCW      0x1ff8,0x1ff8
000be4  00000000          DCW      0x0000,0x0000
000be8  00000000          DCW      0x0000,0x0000
000bec  00000000          DCW      0x0000,0x0000
000bf0  0000e00e          DCW      0x0000,0xe00e
000bf4  f01ef01e          DCW      0xf01e,0xf01e
000bf8  f01ed836          DCW      0xf01e,0xd836
000bfc  d836d836          DCW      0xd836,0xd836
000c00  d836cc66          DCW      0xd836,0xcc66
000c04  cc66cc66          DCW      0xcc66,0xcc66
000c08  c6c6c6c6          DCW      0xc6c6,0xc6c6
000c0c  c6c6c6c6          DCW      0xc6c6,0xc6c6
000c10  c386c386          DCW      0xc386,0xc386
000c14  00000000          DCW      0x0000,0x0000
000c18  00000000          DCW      0x0000,0x0000
000c1c  00000000          DCW      0x0000,0x0000
000c20  0000300c          DCW      0x0000,0x300c
000c24  301c303c          DCW      0x301c,0x303c
000c28  303c306c          DCW      0x303c,0x306c
000c2c  306c30cc          DCW      0x306c,0x30cc
000c30  30cc318c          DCW      0x30cc,0x318c
000c34  330c330c          DCW      0x330c,0x330c
000c38  360c360c          DCW      0x360c,0x360c
000c3c  3c0c3c0c          DCW      0x3c0c,0x3c0c
000c40  380c300c          DCW      0x380c,0x300c
000c44  00000000          DCW      0x0000,0x0000
000c48  00000000          DCW      0x0000,0x0000
000c4c  00000000          DCW      0x0000,0x0000
000c50  000007e0          DCW      0x0000,0x07e0
000c54  1ff8381c          DCW      0x1ff8,0x381c
000c58  700e6006          DCW      0x700e,0x6006
000c5c  c003c003          DCW      0xc003,0xc003
000c60  c003c003          DCW      0xc003,0xc003
000c64  c003c003          DCW      0xc003,0xc003
000c68  c0036006          DCW      0xc003,0x6006
000c6c  700e381c          DCW      0x700e,0x381c
000c70  1ff807e0          DCW      0x1ff8,0x07e0
000c74  00000000          DCW      0x0000,0x0000
000c78  00000000          DCW      0x0000,0x0000
000c7c  00000000          DCW      0x0000,0x0000
000c80  00000ffc          DCW      0x0000,0x0ffc
000c84  1ffc380c          DCW      0x1ffc,0x380c
000c88  300c300c          DCW      0x300c,0x300c
000c8c  300c300c          DCW      0x300c,0x300c
000c90  180c1ffc          DCW      0x180c,0x1ffc
000c94  07fc000c          DCW      0x07fc,0x000c
000c98  000c000c          DCW      0x000c,0x000c
000c9c  000c000c          DCW      0x000c,0x000c
000ca0  000c000c          DCW      0x000c,0x000c
000ca4  00000000          DCW      0x0000,0x0000
000ca8  00000000          DCW      0x0000,0x0000
000cac  00000000          DCW      0x0000,0x0000
000cb0  000007e0          DCW      0x0000,0x07e0
000cb4  1ff8381c          DCW      0x1ff8,0x381c
000cb8  700e6006          DCW      0x700e,0x6006
000cbc  e003c003          DCW      0xe003,0xc003
000cc0  c003c003          DCW      0xc003,0xc003
000cc4  c003c003          DCW      0xc003,0xc003
000cc8  e0076306          DCW      0xe007,0x6306
000ccc  3f0e3c1c          DCW      0x3f0e,0x3c1c
000cd0  3ff8f7e0          DCW      0x3ff8,0xf7e0
000cd4  c0000000          DCW      0xc000,0x0000
000cd8  00000000          DCW      0x0000,0x0000
000cdc  00000000          DCW      0x0000,0x0000
000ce0  00000ffe          DCW      0x0000,0x0ffe
000ce4  1ffe3806          DCW      0x1ffe,0x3806
000ce8  30063006          DCW      0x3006,0x3006
000cec  30063806          DCW      0x3006,0x3806
000cf0  1ffe07fe          DCW      0x1ffe,0x07fe
000cf4  03060606          DCW      0x0306,0x0606
000cf8  0c061806          DCW      0x0c06,0x1806
000cfc  18063006          DCW      0x1806,0x3006
000d00  30066006          DCW      0x3006,0x6006
000d04  00000000          DCW      0x0000,0x0000
000d08  00000000          DCW      0x0000,0x0000
000d0c  00000000          DCW      0x0000,0x0000
000d10  000003e0          DCW      0x0000,0x03e0
000d14  0ff80c1c          DCW      0x0ff8,0x0c1c
000d18  180c180c          DCW      0x180c,0x180c
000d1c  000c001c          DCW      0x000c,0x001c
000d20  03f80fe0          DCW      0x03f8,0x0fe0
000d24  1e003800          DCW      0x1e00,0x3800
000d28  30063006          DCW      0x3006,0x3006
000d2c  300e1c1c          DCW      0x300e,0x1c1c
000d30  0ff807e0          DCW      0x0ff8,0x07e0
000d34  00000000          DCW      0x0000,0x0000
000d38  00000000          DCW      0x0000,0x0000
000d3c  00000000          DCW      0x0000,0x0000
000d40  00007ffe          DCW      0x0000,0x7ffe
000d44  7ffe0180          DCW      0x7ffe,0x0180
000d48  01800180          DCW      0x0180,0x0180
000d4c  01800180          DCW      0x0180,0x0180
000d50  01800180          DCW      0x0180,0x0180
000d54  01800180          DCW      0x0180,0x0180
000d58  01800180          DCW      0x0180,0x0180
000d5c  01800180          DCW      0x0180,0x0180
000d60  01800180          DCW      0x0180,0x0180
000d64  00000000          DCW      0x0000,0x0000
000d68  00000000          DCW      0x0000,0x0000
000d6c  00000000          DCW      0x0000,0x0000
000d70  0000300c          DCW      0x0000,0x300c
000d74  300c300c          DCW      0x300c,0x300c
000d78  300c300c          DCW      0x300c,0x300c
000d7c  300c300c          DCW      0x300c,0x300c
000d80  300c300c          DCW      0x300c,0x300c
000d84  300c300c          DCW      0x300c,0x300c
000d88  300c300c          DCW      0x300c,0x300c
000d8c  300c1818          DCW      0x300c,0x1818
000d90  1ff807e0          DCW      0x1ff8,0x07e0
000d94  00000000          DCW      0x0000,0x0000
000d98  00000000          DCW      0x0000,0x0000
000d9c  00000000          DCW      0x0000,0x0000
000da0  00006003          DCW      0x0000,0x6003
000da4  30063006          DCW      0x3006,0x3006
000da8  3006180c          DCW      0x3006,0x180c
000dac  180c180c          DCW      0x180c,0x180c
000db0  0c180c18          DCW      0x0c18,0x0c18
000db4  0e380630          DCW      0x0e38,0x0630
000db8  06300770          DCW      0x0630,0x0770
000dbc  03600360          DCW      0x0360,0x0360
000dc0  01c001c0          DCW      0x01c0,0x01c0
000dc4  00000000          DCW      0x0000,0x0000
000dc8  00000000          DCW      0x0000,0x0000
000dcc  00000000          DCW      0x0000,0x0000
000dd0  00006003          DCW      0x0000,0x6003
000dd4  61c361c3          DCW      0x61c3,0x61c3
000dd8  61c33366          DCW      0x61c3,0x3366
000ddc  33663366          DCW      0x3366,0x3366
000de0  33663366          DCW      0x3366,0x3366
000de4  33661b6c          DCW      0x3366,0x1b6c
000de8  1b6c1b6c          DCW      0x1b6c,0x1b6c
000dec  1a2c1e3c          DCW      0x1a2c,0x1e3c
000df0  0e380e38          DCW      0x0e38,0x0e38
000df4  00000000          DCW      0x0000,0x0000
000df8  00000000          DCW      0x0000,0x0000
000dfc  00000000          DCW      0x0000,0x0000
000e00  0000e00f          DCW      0x0000,0xe00f
000e04  700c3018          DCW      0x700c,0x3018
000e08  18300c70          DCW      0x1830,0x0c70
000e0c  0e6007c0          DCW      0x0e60,0x07c0
000e10  03800380          DCW      0x0380,0x0380
000e14  03c006e0          DCW      0x03c0,0x06e0
000e18  0c701c30          DCW      0x0c70,0x1c30
000e1c  1818300c          DCW      0x1818,0x300c
000e20  600ee007          DCW      0x600e,0xe007
000e24  00000000          DCW      0x0000,0x0000
000e28  00000000          DCW      0x0000,0x0000
000e2c  00000000          DCW      0x0000,0x0000
000e30  0000c003          DCW      0x0000,0xc003
000e34  6006300c          DCW      0x6006,0x300c
000e38  381c1838          DCW      0x381c,0x1838
000e3c  0c300660          DCW      0x0c30,0x0660
000e40  07e003c0          DCW      0x07e0,0x03c0
000e44  01800180          DCW      0x0180,0x0180
000e48  01800180          DCW      0x0180,0x0180
000e4c  01800180          DCW      0x0180,0x0180
000e50  01800180          DCW      0x0180,0x0180
000e54  00000000          DCW      0x0000,0x0000
000e58  00000000          DCW      0x0000,0x0000
000e5c  00000000          DCW      0x0000,0x0000
000e60  00007ffc          DCW      0x0000,0x7ffc
000e64  7ffc6000          DCW      0x7ffc,0x6000
000e68  30001800          DCW      0x3000,0x1800
000e6c  0c000600          DCW      0x0c00,0x0600
000e70  03000180          DCW      0x0300,0x0180
000e74  00c00060          DCW      0x00c0,0x0060
000e78  00300018          DCW      0x0030,0x0018
000e7c  000c0006          DCW      0x000c,0x0006
000e80  7ffe7ffe          DCW      0x7ffe,0x7ffe
000e84  00000000          DCW      0x0000,0x0000
000e88  00000000          DCW      0x0000,0x0000
000e8c  00000000          DCW      0x0000,0x0000
000e90  000003e0          DCW      0x0000,0x03e0
000e94  03e00060          DCW      0x03e0,0x0060
000e98  00600060          DCW      0x0060,0x0060
000e9c  00600060          DCW      0x0060,0x0060
000ea0  00600060          DCW      0x0060,0x0060
000ea4  00600060          DCW      0x0060,0x0060
000ea8  00600060          DCW      0x0060,0x0060
000eac  00600060          DCW      0x0060,0x0060
000eb0  00600060          DCW      0x0060,0x0060
000eb4  00600060          DCW      0x0060,0x0060
000eb8  006003e0          DCW      0x0060,0x03e0
000ebc  03e00000          DCW      0x03e0,0x0000
000ec0  00000030          DCW      0x0000,0x0030
000ec4  00300060          DCW      0x0030,0x0060
000ec8  00600060          DCW      0x0060,0x0060
000ecc  00c000c0          DCW      0x00c0,0x00c0
000ed0  00c001c0          DCW      0x00c0,0x01c0
000ed4  01800180          DCW      0x0180,0x0180
000ed8  01800300          DCW      0x0180,0x0300
000edc  03000300          DCW      0x0300,0x0300
000ee0  06000600          DCW      0x0600,0x0600
000ee4  00000000          DCW      0x0000,0x0000
000ee8  00000000          DCW      0x0000,0x0000
000eec  00000000          DCW      0x0000,0x0000
000ef0  000003e0          DCW      0x0000,0x03e0
000ef4  03e00300          DCW      0x03e0,0x0300
000ef8  03000300          DCW      0x0300,0x0300
000efc  03000300          DCW      0x0300,0x0300
000f00  03000300          DCW      0x0300,0x0300
000f04  03000300          DCW      0x0300,0x0300
000f08  03000300          DCW      0x0300,0x0300
000f0c  03000300          DCW      0x0300,0x0300
000f10  03000300          DCW      0x0300,0x0300
000f14  03000300          DCW      0x0300,0x0300
000f18  030003e0          DCW      0x0300,0x03e0
000f1c  03e00000          DCW      0x03e0,0x0000
000f20  00000000          DCW      0x0000,0x0000
000f24  01c001c0          DCW      0x01c0,0x01c0
000f28  03600360          DCW      0x0360,0x0360
000f2c  03600630          DCW      0x0360,0x0630
000f30  06300c18          DCW      0x0630,0x0c18
000f34  0c180000          DCW      0x0c18,0x0000
000f38  00000000          DCW      0x0000,0x0000
000f3c  00000000          DCW      0x0000,0x0000
000f40  00000000          DCW      0x0000,0x0000
000f44  00000000          DCW      0x0000,0x0000
000f48  00000000          DCW      0x0000,0x0000
000f4c  00000000          DCW      0x0000,0x0000
000f50  00000000          DCW      0x0000,0x0000
000f54  00000000          DCW      0x0000,0x0000
000f58  00000000          DCW      0x0000,0x0000
000f5c  00000000          DCW      0x0000,0x0000
000f60  00000000          DCW      0x0000,0x0000
000f64  00000000          DCW      0x0000,0x0000
000f68  00000000          DCW      0x0000,0x0000
000f6c  00000000          DCW      0x0000,0x0000
000f70  0000ffff          DCW      0x0000,0xffff
000f74  ffff0000          DCW      0xffff,0x0000
000f78  00000000          DCW      0x0000,0x0000
000f7c  00000000          DCW      0x0000,0x0000
000f80  0000000c          DCW      0x0000,0x000c
000f84  000c000c          DCW      0x000c,0x000c
000f88  000c000c          DCW      0x000c,0x000c
000f8c  000c0000          DCW      0x000c,0x0000
000f90  00000000          DCW      0x0000,0x0000
000f94  00000000          DCW      0x0000,0x0000
000f98  00000000          DCW      0x0000,0x0000
000f9c  00000000          DCW      0x0000,0x0000
000fa0  00000000          DCW      0x0000,0x0000
000fa4  00000000          DCW      0x0000,0x0000
000fa8  00000000          DCW      0x0000,0x0000
000fac  00000000          DCW      0x0000,0x0000
000fb0  00000000          DCW      0x0000,0x0000
000fb4  00000000          DCW      0x0000,0x0000
000fb8  00000000          DCW      0x0000,0x0000
000fbc  03f007f8          DCW      0x03f0,0x07f8
000fc0  0c1c0c0c          DCW      0x0c1c,0x0c0c
000fc4  0f000ff0          DCW      0x0f00,0x0ff0
000fc8  0cf80c0c          DCW      0x0cf8,0x0c0c
000fcc  0c0c0f1c          DCW      0x0c0c,0x0f1c
000fd0  0ff818f0          DCW      0x0ff8,0x18f0
000fd4  00000000          DCW      0x0000,0x0000
000fd8  00000000          DCW      0x0000,0x0000
000fdc  00000000          DCW      0x0000,0x0000
000fe0  00000018          DCW      0x0000,0x0018
000fe4  00180018          DCW      0x0018,0x0018
000fe8  00180018          DCW      0x0018,0x0018
000fec  03d80ff8          DCW      0x03d8,0x0ff8
000ff0  0c381818          DCW      0x0c38,0x1818
000ff4  18181818          DCW      0x1818,0x1818
000ff8  18181818          DCW      0x1818,0x1818
000ffc  18180c38          DCW      0x1818,0x0c38
001000  0ff803d8          DCW      0x0ff8,0x03d8
001004  00000000          DCW      0x0000,0x0000
001008  00000000          DCW      0x0000,0x0000
00100c  00000000          DCW      0x0000,0x0000
001010  00000000          DCW      0x0000,0x0000
001014  00000000          DCW      0x0000,0x0000
001018  00000000          DCW      0x0000,0x0000
00101c  03c007f0          DCW      0x03c0,0x07f0
001020  0e300c18          DCW      0x0e30,0x0c18
001024  00180018          DCW      0x0018,0x0018
001028  00180018          DCW      0x0018,0x0018
00102c  0c180e30          DCW      0x0c18,0x0e30
001030  07f003c0          DCW      0x07f0,0x03c0
001034  00000000          DCW      0x0000,0x0000
001038  00000000          DCW      0x0000,0x0000
00103c  00000000          DCW      0x0000,0x0000
001040  00001800          DCW      0x0000,0x1800
001044  18001800          DCW      0x1800,0x1800
001048  18001800          DCW      0x1800,0x1800
00104c  1bc01ff0          DCW      0x1bc0,0x1ff0
001050  1c301818          DCW      0x1c30,0x1818
001054  18181818          DCW      0x1818,0x1818
001058  18181818          DCW      0x1818,0x1818
00105c  18181c30          DCW      0x1818,0x1c30
001060  1ff01bc0          DCW      0x1ff0,0x1bc0
001064  00000000          DCW      0x0000,0x0000
001068  00000000          DCW      0x0000,0x0000
00106c  00000000          DCW      0x0000,0x0000
001070  00000000          DCW      0x0000,0x0000
001074  00000000          DCW      0x0000,0x0000
001078  00000000          DCW      0x0000,0x0000
00107c  03c00ff0          DCW      0x03c0,0x0ff0
001080  0c301818          DCW      0x0c30,0x1818
001084  1ff81ff8          DCW      0x1ff8,0x1ff8
001088  00180018          DCW      0x0018,0x0018
00108c  18381c30          DCW      0x1838,0x1c30
001090  0ff007c0          DCW      0x0ff0,0x07c0
001094  00000000          DCW      0x0000,0x0000
001098  00000000          DCW      0x0000,0x0000
00109c  00000000          DCW      0x0000,0x0000
0010a0  00000f80          DCW      0x0000,0x0f80
0010a4  0fc000c0          DCW      0x0fc0,0x00c0
0010a8  00c000c0          DCW      0x00c0,0x00c0
0010ac  07f007f0          DCW      0x07f0,0x07f0
0010b0  00c000c0          DCW      0x00c0,0x00c0
0010b4  00c000c0          DCW      0x00c0,0x00c0
0010b8  00c000c0          DCW      0x00c0,0x00c0
0010bc  00c000c0          DCW      0x00c0,0x00c0
0010c0  00c000c0          DCW      0x00c0,0x00c0
0010c4  00000000          DCW      0x0000,0x0000
0010c8  00000000          DCW      0x0000,0x0000
0010cc  00000000          DCW      0x0000,0x0000
0010d0  00000000          DCW      0x0000,0x0000
0010d4  00000000          DCW      0x0000,0x0000
0010d8  00000000          DCW      0x0000,0x0000
0010dc  0de00ff8          DCW      0x0de0,0x0ff8
0010e0  0e180c0c          DCW      0x0e18,0x0c0c
0010e4  0c0c0c0c          DCW      0x0c0c,0x0c0c
0010e8  0c0c0c0c          DCW      0x0c0c,0x0c0c
0010ec  0c0c0e18          DCW      0x0c0c,0x0e18
0010f0  0ff80de0          DCW      0x0ff8,0x0de0
0010f4  0c000c0c          DCW      0x0c00,0x0c0c
0010f8  061c07f8          DCW      0x061c,0x07f8
0010fc  01f00000          DCW      0x01f0,0x0000
001100  00000018          DCW      0x0000,0x0018
001104  00180018          DCW      0x0018,0x0018
001108  00180018          DCW      0x0018,0x0018
00110c  07d80ff8          DCW      0x07d8,0x0ff8
001110  1c381818          DCW      0x1c38,0x1818
001114  18181818          DCW      0x1818,0x1818
001118  18181818          DCW      0x1818,0x1818
00111c  18181818          DCW      0x1818,0x1818
001120  18181818          DCW      0x1818,0x1818
001124  00000000          DCW      0x0000,0x0000
001128  00000000          DCW      0x0000,0x0000
00112c  00000000          DCW      0x0000,0x0000
001130  000000c0          DCW      0x0000,0x00c0
001134  00c00000          DCW      0x00c0,0x0000
001138  00000000          DCW      0x0000,0x0000
00113c  00c000c0          DCW      0x00c0,0x00c0
001140  00c000c0          DCW      0x00c0,0x00c0
001144  00c000c0          DCW      0x00c0,0x00c0
001148  00c000c0          DCW      0x00c0,0x00c0
00114c  00c000c0          DCW      0x00c0,0x00c0
001150  00c000c0          DCW      0x00c0,0x00c0
001154  00000000          DCW      0x0000,0x0000
001158  00000000          DCW      0x0000,0x0000
00115c  00000000          DCW      0x0000,0x0000
001160  000000c0          DCW      0x0000,0x00c0
001164  00c00000          DCW      0x00c0,0x0000
001168  00000000          DCW      0x0000,0x0000
00116c  00c000c0          DCW      0x00c0,0x00c0
001170  00c000c0          DCW      0x00c0,0x00c0
001174  00c000c0          DCW      0x00c0,0x00c0
001178  00c000c0          DCW      0x00c0,0x00c0
00117c  00c000c0          DCW      0x00c0,0x00c0
001180  00c000c0          DCW      0x00c0,0x00c0
001184  00c000c0          DCW      0x00c0,0x00c0
001188  00c000f8          DCW      0x00c0,0x00f8
00118c  00780000          DCW      0x0078,0x0000
001190  0000000c          DCW      0x0000,0x000c
001194  000c000c          DCW      0x000c,0x000c
001198  000c000c          DCW      0x000c,0x000c
00119c  0c0c060c          DCW      0x0c0c,0x060c
0011a0  030c018c          DCW      0x030c,0x018c
0011a4  00cc006c          DCW      0x00cc,0x006c
0011a8  00fc019c          DCW      0x00fc,0x019c
0011ac  038c030c          DCW      0x038c,0x030c
0011b0  060c0c0c          DCW      0x060c,0x0c0c
0011b4  00000000          DCW      0x0000,0x0000
0011b8  00000000          DCW      0x0000,0x0000
0011bc  00000000          DCW      0x0000,0x0000
0011c0  000000c0          DCW      0x0000,0x00c0
0011c4  00c000c0          DCW      0x00c0,0x00c0
0011c8  00c000c0          DCW      0x00c0,0x00c0
0011cc  00c000c0          DCW      0x00c0,0x00c0
0011d0  00c000c0          DCW      0x00c0,0x00c0
0011d4  00c000c0          DCW      0x00c0,0x00c0
0011d8  00c000c0          DCW      0x00c0,0x00c0
0011dc  00c000c0          DCW      0x00c0,0x00c0
0011e0  00c000c0          DCW      0x00c0,0x00c0
0011e4  00000000          DCW      0x0000,0x0000
0011e8  00000000          DCW      0x0000,0x0000
0011ec  00000000          DCW      0x0000,0x0000
0011f0  00000000          DCW      0x0000,0x0000
0011f4  00000000          DCW      0x0000,0x0000
0011f8  00000000          DCW      0x0000,0x0000
0011fc  3c7c7eff          DCW      0x3c7c,0x7eff
001200  e3c7c183          DCW      0xe3c7,0xc183
001204  c183c183          DCW      0xc183,0xc183
001208  c183c183          DCW      0xc183,0xc183
00120c  c183c183          DCW      0xc183,0xc183
001210  c183c183          DCW      0xc183,0xc183
001214  00000000          DCW      0x0000,0x0000
001218  00000000          DCW      0x0000,0x0000
00121c  00000000          DCW      0x0000,0x0000
001220  00000000          DCW      0x0000,0x0000
001224  00000000          DCW      0x0000,0x0000
001228  00000000          DCW      0x0000,0x0000
00122c  07980ff8          DCW      0x0798,0x0ff8
001230  1c381818          DCW      0x1c38,0x1818
001234  18181818          DCW      0x1818,0x1818
001238  18181818          DCW      0x1818,0x1818
00123c  18181818          DCW      0x1818,0x1818
001240  18181818          DCW      0x1818,0x1818
001244  00000000          DCW      0x0000,0x0000
001248  00000000          DCW      0x0000,0x0000
00124c  00000000          DCW      0x0000,0x0000
001250  00000000          DCW      0x0000,0x0000
001254  00000000          DCW      0x0000,0x0000
001258  00000000          DCW      0x0000,0x0000
00125c  03c00ff0          DCW      0x03c0,0x0ff0
001260  0c301818          DCW      0x0c30,0x1818
001264  18181818          DCW      0x1818,0x1818
001268  18181818          DCW      0x1818,0x1818
00126c  18180c30          DCW      0x1818,0x0c30
001270  0ff003c0          DCW      0x0ff0,0x03c0
001274  00000000          DCW      0x0000,0x0000
001278  00000000          DCW      0x0000,0x0000
00127c  00000000          DCW      0x0000,0x0000
001280  00000000          DCW      0x0000,0x0000
001284  00000000          DCW      0x0000,0x0000
001288  00000000          DCW      0x0000,0x0000
00128c  03d80ff8          DCW      0x03d8,0x0ff8
001290  0c381818          DCW      0x0c38,0x1818
001294  18181818          DCW      0x1818,0x1818
001298  18181818          DCW      0x1818,0x1818
00129c  18180c38          DCW      0x1818,0x0c38
0012a0  0ff803d8          DCW      0x0ff8,0x03d8
0012a4  00180018          DCW      0x0018,0x0018
0012a8  00180018          DCW      0x0018,0x0018
0012ac  00180000          DCW      0x0018,0x0000
0012b0  00000000          DCW      0x0000,0x0000
0012b4  00000000          DCW      0x0000,0x0000
0012b8  00000000          DCW      0x0000,0x0000
0012bc  1bc01ff0          DCW      0x1bc0,0x1ff0
0012c0  1c301818          DCW      0x1c30,0x1818
0012c4  18181818          DCW      0x1818,0x1818
0012c8  18181818          DCW      0x1818,0x1818
0012cc  18181c30          DCW      0x1818,0x1c30
0012d0  1ff01bc0          DCW      0x1ff0,0x1bc0
0012d4  18001800          DCW      0x1800,0x1800
0012d8  18001800          DCW      0x1800,0x1800
0012dc  18000000          DCW      0x1800,0x0000
0012e0  00000000          DCW      0x0000,0x0000
0012e4  00000000          DCW      0x0000,0x0000
0012e8  00000000          DCW      0x0000,0x0000
0012ec  07b003f0          DCW      0x07b0,0x03f0
0012f0  00700030          DCW      0x0070,0x0030
0012f4  00300030          DCW      0x0030,0x0030
0012f8  00300030          DCW      0x0030,0x0030
0012fc  00300030          DCW      0x0030,0x0030
001300  00300030          DCW      0x0030,0x0030
001304  00000000          DCW      0x0000,0x0000
001308  00000000          DCW      0x0000,0x0000
00130c  00000000          DCW      0x0000,0x0000
001310  00000000          DCW      0x0000,0x0000
001314  00000000          DCW      0x0000,0x0000
001318  00000000          DCW      0x0000,0x0000
00131c  03e003f0          DCW      0x03e0,0x03f0
001320  0e380c18          DCW      0x0e38,0x0c18
001324  003803f0          DCW      0x0038,0x03f0
001328  07c00c00          DCW      0x07c0,0x0c00
00132c  0c180e38          DCW      0x0c18,0x0e38
001330  07f003e0          DCW      0x07f0,0x03e0
001334  00000000          DCW      0x0000,0x0000
001338  00000000          DCW      0x0000,0x0000
00133c  00000000          DCW      0x0000,0x0000
001340  00000000          DCW      0x0000,0x0000
001344  008000c0          DCW      0x0080,0x00c0
001348  00c000c0          DCW      0x00c0,0x00c0
00134c  07f007f0          DCW      0x07f0,0x07f0
001350  00c000c0          DCW      0x00c0,0x00c0
001354  00c000c0          DCW      0x00c0,0x00c0
001358  00c000c0          DCW      0x00c0,0x00c0
00135c  00c000c0          DCW      0x00c0,0x00c0
001360  07c00780          DCW      0x07c0,0x0780
001364  00000000          DCW      0x0000,0x0000
001368  00000000          DCW      0x0000,0x0000
00136c  00000000          DCW      0x0000,0x0000
001370  00000000          DCW      0x0000,0x0000
001374  00000000          DCW      0x0000,0x0000
001378  00000000          DCW      0x0000,0x0000
00137c  18181818          DCW      0x1818,0x1818
001380  18181818          DCW      0x1818,0x1818
001384  18181818          DCW      0x1818,0x1818
001388  18181818          DCW      0x1818,0x1818
00138c  18181c38          DCW      0x1818,0x1c38
001390  1ff019e0          DCW      0x1ff0,0x19e0
001394  00000000          DCW      0x0000,0x0000
001398  00000000          DCW      0x0000,0x0000
00139c  00000000          DCW      0x0000,0x0000
0013a0  00000000          DCW      0x0000,0x0000
0013a4  00000000          DCW      0x0000,0x0000
0013a8  00000000          DCW      0x0000,0x0000
0013ac  180c0c18          DCW      0x180c,0x0c18
0013b0  0c180c18          DCW      0x0c18,0x0c18
0013b4  06300630          DCW      0x0630,0x0630
0013b8  06300360          DCW      0x0630,0x0360
0013bc  03600360          DCW      0x0360,0x0360
0013c0  01c001c0          DCW      0x01c0,0x01c0
0013c4  00000000          DCW      0x0000,0x0000
0013c8  00000000          DCW      0x0000,0x0000
0013cc  00000000          DCW      0x0000,0x0000
0013d0  00000000          DCW      0x0000,0x0000
0013d4  00000000          DCW      0x0000,0x0000
0013d8  00000000          DCW      0x0000,0x0000
0013dc  41c141c1          DCW      0x41c1,0x41c1
0013e0  61c36363          DCW      0x61c3,0x6363
0013e4  63636363          DCW      0x6363,0x6363
0013e8  36363636          DCW      0x3636,0x3636
0013ec  36361c1c          DCW      0x3636,0x1c1c
0013f0  1c1c1c1c          DCW      0x1c1c,0x1c1c
0013f4  00000000          DCW      0x0000,0x0000
0013f8  00000000          DCW      0x0000,0x0000
0013fc  00000000          DCW      0x0000,0x0000
001400  00000000          DCW      0x0000,0x0000
001404  00000000          DCW      0x0000,0x0000
001408  00000000          DCW      0x0000,0x0000
00140c  381c1c38          DCW      0x381c,0x1c38
001410  0c300660          DCW      0x0c30,0x0660
001414  03c003c0          DCW      0x03c0,0x03c0
001418  03c003c0          DCW      0x03c0,0x03c0
00141c  06600c30          DCW      0x0660,0x0c30
001420  1c38381c          DCW      0x1c38,0x381c
001424  00000000          DCW      0x0000,0x0000
001428  00000000          DCW      0x0000,0x0000
00142c  00000000          DCW      0x0000,0x0000
001430  00000000          DCW      0x0000,0x0000
001434  00000000          DCW      0x0000,0x0000
001438  00000000          DCW      0x0000,0x0000
00143c  30181830          DCW      0x3018,0x1830
001440  18301870          DCW      0x1830,0x1870
001444  0c600c60          DCW      0x0c60,0x0c60
001448  0ce006c0          DCW      0x0ce0,0x06c0
00144c  06c00380          DCW      0x06c0,0x0380
001450  03800380          DCW      0x0380,0x0380
001454  01800180          DCW      0x0180,0x0180
001458  01c000f0          DCW      0x01c0,0x00f0
00145c  00700000          DCW      0x0070,0x0000
001460  00000000          DCW      0x0000,0x0000
001464  00000000          DCW      0x0000,0x0000
001468  00000000          DCW      0x0000,0x0000
00146c  1ffc1ffc          DCW      0x1ffc,0x1ffc
001470  0c000600          DCW      0x0c00,0x0600
001474  03000180          DCW      0x0300,0x0180
001478  00c00060          DCW      0x00c0,0x0060
00147c  00300018          DCW      0x0030,0x0018
001480  1ffc1ffc          DCW      0x1ffc,0x1ffc
001484  00000000          DCW      0x0000,0x0000
001488  00000000          DCW      0x0000,0x0000
00148c  00000000          DCW      0x0000,0x0000
001490  00000300          DCW      0x0000,0x0300
001494  018000c0          DCW      0x0180,0x00c0
001498  00c000c0          DCW      0x00c0,0x00c0
00149c  00c000c0          DCW      0x00c0,0x00c0
0014a0  00c00060          DCW      0x00c0,0x0060
0014a4  00600030          DCW      0x0060,0x0030
0014a8  00600040          DCW      0x0060,0x0040
0014ac  00c000c0          DCW      0x00c0,0x00c0
0014b0  00c000c0          DCW      0x00c0,0x00c0
0014b4  00c000c0          DCW      0x00c0,0x00c0
0014b8  01800300          DCW      0x0180,0x0300
0014bc  00000000          DCW      0x0000,0x0000
0014c0  00000180          DCW      0x0000,0x0180
0014c4  01800180          DCW      0x0180,0x0180
0014c8  01800180          DCW      0x0180,0x0180
0014cc  01800180          DCW      0x0180,0x0180
0014d0  01800180          DCW      0x0180,0x0180
0014d4  01800180          DCW      0x0180,0x0180
0014d8  01800180          DCW      0x0180,0x0180
0014dc  01800180          DCW      0x0180,0x0180
0014e0  01800180          DCW      0x0180,0x0180
0014e4  01800180          DCW      0x0180,0x0180
0014e8  01800180          DCW      0x0180,0x0180
0014ec  01800000          DCW      0x0180,0x0000
0014f0  00000060          DCW      0x0000,0x0060
0014f4  00c001c0          DCW      0x00c0,0x01c0
0014f8  01800180          DCW      0x0180,0x0180
0014fc  01800180          DCW      0x0180,0x0180
001500  01800300          DCW      0x0180,0x0300
001504  03000600          DCW      0x0300,0x0600
001508  03000100          DCW      0x0300,0x0100
00150c  01800180          DCW      0x0180,0x0180
001510  01800180          DCW      0x0180,0x0180
001514  01800180          DCW      0x0180,0x0180
001518  00c00060          DCW      0x00c0,0x0060
00151c  00000000          DCW      0x0000,0x0000
001520  00000000          DCW      0x0000,0x0000
001524  00000000          DCW      0x0000,0x0000
001528  00000000          DCW      0x0000,0x0000
00152c  00000000          DCW      0x0000,0x0000
001530  10f01ff8          DCW      0x10f0,0x1ff8
001534  0f080000          DCW      0x0f08,0x0000
001538  00000000          DCW      0x0000,0x0000
00153c  00000000          DCW      0x0000,0x0000
001540  00000000          DCW      0x0000,0x0000
001544  00000000          DCW      0x0000,0x0000
001548  00000000          DCW      0x0000,0x0000
00154c  00000000          DCW      0x0000,0x0000
001550  00000000          DCW      0x0000,0x0000
001554  00000000          DCW      0x0000,0x0000
001558  00000000          DCW      0x0000,0x0000
00155c  00000000          DCW      0x0000,0x0000
001560  00000000          DCW      0x0000,0x0000
001564  00000000          DCW      0x0000,0x0000
001568  00000000          DCW      0x0000,0x0000
00156c  00000000          DCW      0x0000,0x0000
001570  00000000          DCW      0x0000,0x0000
001574  00000000          DCW      0x0000,0x0000
001578  00000000          DCW      0x0000,0x0000
00157c  00000000          DCW      0x0000,0x0000
001580  00000000          DCW      0x0000,0x0000
001584  00000000          DCW      0x0000,0x0000
001588  000003c0          DCW      0x0000,0x03c0
00158c  0c301008          DCW      0x0c30,0x1008
001590  20042004          DCW      0x2004,0x2004
001594  40024002          DCW      0x4002,0x4002
001598  40024002          DCW      0x4002,0x4002
00159c  40022004          DCW      0x4002,0x2004
0015a0  20041008          DCW      0x2004,0x1008
0015a4  0c3003c0          DCW      0x0c30,0x03c0
0015a8  00000000          DCW      0x0000,0x0000
0015ac  00000000          DCW      0x0000,0x0000
0015b0  00000000          DCW      0x0000,0x0000
0015b4  00000000          DCW      0x0000,0x0000
0015b8  000003c0          DCW      0x0000,0x03c0
0015bc  0ff01ff8          DCW      0x0ff0,0x1ff8
0015c0  3ffc3ffc          DCW      0x3ffc,0x3ffc
0015c4  7ffe7ffe          DCW      0x7ffe,0x7ffe
0015c8  7ffe7ffe          DCW      0x7ffe,0x7ffe
0015cc  7ffe3ffc          DCW      0x7ffe,0x3ffc
0015d0  3ffc1ff8          DCW      0x3ffc,0x1ff8
0015d4  0ff003c0          DCW      0x0ff0,0x03c0
0015d8  00000000          DCW      0x0000,0x0000
0015dc  00000000          DCW      0x0000,0x0000
0015e0  00000000          DCW      0x0000,0x0000
0015e4  00000000          DCW      0x0000,0x0000
0015e8  00000000          DCW      0x0000,0x0000
0015ec  000007e0          DCW      0x0000,0x07e0
0015f0  0ff01818          DCW      0x0ff0,0x1818
0015f4  18181818          DCW      0x1818,0x1818
0015f8  18181818          DCW      0x1818,0x1818
0015fc  18180ff0          DCW      0x1818,0x0ff0
001600  07e00000          DCW      0x07e0,0x0000
001604  00000000          DCW      0x0000,0x0000
001608  00000000          DCW      0x0000,0x0000
00160c  00000000          DCW      0x0000,0x0000
001610  00000000          DCW      0x0000,0x0000
001614  00000000          DCW      0x0000,0x0000
001618  00000000          DCW      0x0000,0x0000
00161c  000007e0          DCW      0x0000,0x07e0
001620  0ff01ff8          DCW      0x0ff0,0x1ff8
001624  1ff81ff8          DCW      0x1ff8,0x1ff8
001628  1ff81ff8          DCW      0x1ff8,0x1ff8
00162c  1ff80ff0          DCW      0x1ff8,0x0ff0
001630  07e00000          DCW      0x07e0,0x0000
001634  00000000          DCW      0x0000,0x0000
001638  00000000          DCW      0x0000,0x0000
00163c  00000000          DCW      0x0000,0x0000
001640  00000000          DCW      0x0000,0x0000
001644  00000000          DCW      0x0000,0x0000
001648  00000000          DCW      0x0000,0x0000
00164c  00000000          DCW      0x0000,0x0000
001650  00000000          DCW      0x0000,0x0000
001654  00000000          DCW      0x0000,0x0000
001658  018003c0          DCW      0x0180,0x03c0
00165c  06600c30          DCW      0x0660,0x0c30
001660  18181818          DCW      0x1818,0x1818
001664  1ff81ff8          DCW      0x1ff8,0x1ff8
001668  00000000          DCW      0x0000,0x0000
00166c  00000000          DCW      0x0000,0x0000
001670  00000000          DCW      0x0000,0x0000
001674  00000000          DCW      0x0000,0x0000
001678  00000000          DCW      0x0000,0x0000
00167c  00000000          DCW      0x0000,0x0000
001680  00000000          DCW      0x0000,0x0000
001684  00000000          DCW      0x0000,0x0000
001688  018003c0          DCW      0x0180,0x03c0
00168c  07e00ff0          DCW      0x07e0,0x0ff0
001690  1ff81ff8          DCW      0x1ff8,0x1ff8
001694  1ff81ff8          DCW      0x1ff8,0x1ff8
001698  00000000          DCW      0x0000,0x0000
00169c  00000000          DCW      0x0000,0x0000
0016a0  00000000          DCW      0x0000,0x0000
0016a4  00000000          DCW      0x0000,0x0000
0016a8  1ff81ff8          DCW      0x1ff8,0x1ff8
0016ac  18181818          DCW      0x1818,0x1818
0016b0  0c300660          DCW      0x0c30,0x0660
0016b4  03c00180          DCW      0x03c0,0x0180
0016b8  00000000          DCW      0x0000,0x0000
0016bc  00000000          DCW      0x0000,0x0000
0016c0  00000000          DCW      0x0000,0x0000
0016c4  00000000          DCW      0x0000,0x0000
0016c8  00000000          DCW      0x0000,0x0000
0016cc  00000000          DCW      0x0000,0x0000
0016d0  00000000          DCW      0x0000,0x0000
0016d4  00000000          DCW      0x0000,0x0000
0016d8  1ff81ff8          DCW      0x1ff8,0x1ff8
0016dc  1ff81ff8          DCW      0x1ff8,0x1ff8
0016e0  0ff007e0          DCW      0x0ff0,0x07e0
0016e4  03c00180          DCW      0x03c0,0x0180
0016e8  00000000          DCW      0x0000,0x0000
0016ec  00000000          DCW      0x0000,0x0000
0016f0  00000000          DCW      0x0000,0x0000
0016f4  00000000          DCW      0x0000,0x0000
0016f8  00000000          DCW      0x0000,0x0000
0016fc  00000000          DCW      0x0000,0x0000
001700  00000000          DCW      0x0000,0x0000
001704  00000000          DCW      0x0000,0x0000
001708  00000000          DCW      0x0000,0x0000
00170c  000001e0          DCW      0x0000,0x01e0
001710  01f00198          DCW      0x01f0,0x0198
001714  018c0186          DCW      0x018c,0x0186
001718  0186018c          DCW      0x0186,0x018c
00171c  019801f0          DCW      0x0198,0x01f0
001720  01e00000          DCW      0x01e0,0x0000
001724  00000000          DCW      0x0000,0x0000
001728  00000000          DCW      0x0000,0x0000
00172c  00000000          DCW      0x0000,0x0000
001730  00000000          DCW      0x0000,0x0000
001734  00000000          DCW      0x0000,0x0000
001738  00000000          DCW      0x0000,0x0000
00173c  000001e0          DCW      0x0000,0x01e0
001740  01f001f8          DCW      0x01f0,0x01f8
001744  01fc01fe          DCW      0x01fc,0x01fe
001748  01fe01fc          DCW      0x01fe,0x01fc
00174c  01f801f0          DCW      0x01f8,0x01f0
001750  01e00000          DCW      0x01e0,0x0000
001754  00000000          DCW      0x0000,0x0000
001758  00000000          DCW      0x0000,0x0000
00175c  00000000          DCW      0x0000,0x0000
001760  00000000          DCW      0x0000,0x0000
001764  00000000          DCW      0x0000,0x0000
001768  00000000          DCW      0x0000,0x0000
00176c  00000780          DCW      0x0000,0x0780
001770  0f801980          DCW      0x0f80,0x1980
001774  31806180          DCW      0x3180,0x6180
001778  61803180          DCW      0x6180,0x3180
00177c  19800f80          DCW      0x1980,0x0f80
001780  07800000          DCW      0x0780,0x0000
001784  00000000          DCW      0x0000,0x0000
001788  00000000          DCW      0x0000,0x0000
00178c  00000000          DCW      0x0000,0x0000
001790  00000000          DCW      0x0000,0x0000
001794  00000000          DCW      0x0000,0x0000
001798  00000000          DCW      0x0000,0x0000
00179c  00000780          DCW      0x0000,0x0780
0017a0  0f801f80          DCW      0x0f80,0x1f80
0017a4  3f807f80          DCW      0x3f80,0x7f80
0017a8  7f803f80          DCW      0x7f80,0x3f80
0017ac  1f800f80          DCW      0x1f80,0x0f80
0017b0  07800000          DCW      0x0780,0x0000
0017b4  00000000          DCW      0x0000,0x0000
0017b8  00000000          DCW      0x0000,0x0000
0017bc  00000000          DCW      0x0000,0x0000
0017c0  000001c0          DCW      0x0000,0x01c0
0017c4  02200220          DCW      0x0220,0x0220
0017c8  01400630          DCW      0x0140,0x0630
0017cc  08080808          DCW      0x0808,0x0808
0017d0  08080808          DCW      0x0808,0x0808
0017d4  08080808          DCW      0x0808,0x0808
0017d8  08080220          DCW      0x0808,0x0220
0017dc  02200220          DCW      0x0220,0x0220
0017e0  02200220          DCW      0x0220,0x0220
0017e4  02200220          DCW      0x0220,0x0220
0017e8  02200220          DCW      0x0220,0x0220
0017ec  02200000          DCW      0x0220,0x0000
0017f0  000001c0          DCW      0x0000,0x01c0
0017f4  03e003e0          DCW      0x03e0,0x03e0
0017f8  01c007f0          DCW      0x01c0,0x07f0
0017fc  0dd80dd8          DCW      0x0dd8,0x0dd8
001800  0dd80dd8          DCW      0x0dd8,0x0dd8
001804  0dd80dd8          DCW      0x0dd8,0x0dd8
001808  0dd80360          DCW      0x0dd8,0x0360
00180c  03600360          DCW      0x0360,0x0360
001810  03600360          DCW      0x0360,0x0360
001814  03600360          DCW      0x0360,0x0360
001818  03600360          DCW      0x0360,0x0360
00181c  03600000          DCW      0x0360,0x0000
001820  000001c0          DCW      0x0000,0x01c0
001824  02200220          DCW      0x0220,0x0220
001828  01400630          DCW      0x0140,0x0630
00182c  08080808          DCW      0x0808,0x0808
001830  08081004          DCW      0x0808,0x1004
001834  20022002          DCW      0x2002,0x2002
001838  01400220          DCW      0x0140,0x0220
00183c  02200410          DCW      0x0220,0x0410
001840  08080808          DCW      0x0808,0x0808
001844  10041004          DCW      0x1004,0x1004
001848  20044004          DCW      0x2004,0x4004
00184c  00000000          DCW      0x0000,0x0000
001850  000001c0          DCW      0x0000,0x01c0
001854  03e003e0          DCW      0x03e0,0x03e0
001858  01c007f0          DCW      0x01c0,0x07f0
00185c  0dd80dd8          DCW      0x0dd8,0x0dd8
001860  0dd819cc          DCW      0x0dd8,0x19cc
001864  31c661c2          DCW      0x31c6,0x61c2
001868  01c00360          DCW      0x01c0,0x0360
00186c  03600670          DCW      0x0360,0x0670
001870  0c380c18          DCW      0x0c38,0x0c18
001874  180c180c          DCW      0x180c,0x180c
001878  300c600c          DCW      0x300c,0x600c
00187c  00000000          DCW      0x0000,0x0000

                          AREA ||.data||, DATA, ALIGN=2

                  ||fb||
                          DCD      0x28000000
                  Color
000004  ffff0000          DCW      0xffff,0x0000

;*** Start embedded assembler ***

#line 1 "GLCD_LPC18xx.c"
	AREA ||.rev16_text||, CODE, READONLY
	THUMB
	EXPORT |__asm___14_GLCD_LPC18xx_c_07b274fb____REV16|
#line 130 "C:\\Keil\\ARM\\CMSIS\\Include\\core_cmInstr.h"
|__asm___14_GLCD_LPC18xx_c_07b274fb____REV16| PROC
#line 131

 rev16 r0, r0
 bx lr
	ENDP
	AREA ||.revsh_text||, CODE, READONLY
	THUMB
	EXPORT |__asm___14_GLCD_LPC18xx_c_07b274fb____REVSH|
#line 145
|__asm___14_GLCD_LPC18xx_c_07b274fb____REVSH| PROC
#line 146

 revsh r0, r0
 bx lr
	ENDP

;*** End   embedded assembler ***
